
ZoePLAY.elf:     file format elf32-avr

Sections:
Idx Name          Size      VMA       LMA       File off  Algn
  0 .data         000000a2  00800100  00002ab0  00002b44  2**0
                  CONTENTS, ALLOC, LOAD, DATA
  1 .text         00002ab0  00000000  00000000  00000094  2**1
                  CONTENTS, ALLOC, LOAD, READONLY, CODE
  2 .bss          000005a8  008001a2  008001a2  00002be6  2**0
                  ALLOC
  3 .comment      00000030  00000000  00000000  00002be6  2**0
                  CONTENTS, READONLY
  4 .note.gnu.avr.deviceinfo 00000040  00000000  00000000  00002c18  2**2
                  CONTENTS, READONLY
  5 .debug_aranges 00000130  00000000  00000000  00002c58  2**0
                  CONTENTS, READONLY, DEBUGGING
  6 .debug_info   000053ac  00000000  00000000  00002d88  2**0
                  CONTENTS, READONLY, DEBUGGING
  7 .debug_abbrev 0000043d  00000000  00000000  00008134  2**0
                  CONTENTS, READONLY, DEBUGGING
  8 .debug_line   000016bc  00000000  00000000  00008571  2**0
                  CONTENTS, READONLY, DEBUGGING
  9 .debug_frame  00000760  00000000  00000000  00009c30  2**2
                  CONTENTS, READONLY, DEBUGGING
 10 .debug_str    00000ba1  00000000  00000000  0000a390  2**0
                  CONTENTS, READONLY, DEBUGGING
 11 .debug_loc    00003d40  00000000  00000000  0000af31  2**0
                  CONTENTS, READONLY, DEBUGGING
 12 .debug_ranges 00000168  00000000  00000000  0000ec71  2**0
                  CONTENTS, READONLY, DEBUGGING

Disassembly of section .text:

00000000 <__vectors>:
       0:	50 c4       	rjmp	.+2208   	; 0x8a2 <__ctors_end>
       2:	00 00       	nop
       4:	6d c4       	rjmp	.+2266   	; 0x8e0 <__bad_interrupt>
       6:	00 00       	nop
       8:	6b c4       	rjmp	.+2262   	; 0x8e0 <__bad_interrupt>
       a:	00 00       	nop
       c:	69 c4       	rjmp	.+2258   	; 0x8e0 <__bad_interrupt>
       e:	00 00       	nop
      10:	67 c4       	rjmp	.+2254   	; 0x8e0 <__bad_interrupt>
      12:	00 00       	nop
      14:	65 c4       	rjmp	.+2250   	; 0x8e0 <__bad_interrupt>
      16:	00 00       	nop
      18:	63 c4       	rjmp	.+2246   	; 0x8e0 <__bad_interrupt>
      1a:	00 00       	nop
      1c:	61 c4       	rjmp	.+2242   	; 0x8e0 <__bad_interrupt>
      1e:	00 00       	nop
      20:	5f c4       	rjmp	.+2238   	; 0x8e0 <__bad_interrupt>
      22:	00 00       	nop
      24:	5d c4       	rjmp	.+2234   	; 0x8e0 <__bad_interrupt>
      26:	00 00       	nop
      28:	5b c4       	rjmp	.+2230   	; 0x8e0 <__bad_interrupt>
      2a:	00 00       	nop
      2c:	59 c4       	rjmp	.+2226   	; 0x8e0 <__bad_interrupt>
      2e:	00 00       	nop
      30:	0c 94 04 10 	jmp	0x2008	; 0x2008 <__vector_12>
      34:	55 c4       	rjmp	.+2218   	; 0x8e0 <__bad_interrupt>
      36:	00 00       	nop
      38:	53 c4       	rjmp	.+2214   	; 0x8e0 <__bad_interrupt>
      3a:	00 00       	nop
      3c:	51 c4       	rjmp	.+2210   	; 0x8e0 <__bad_interrupt>
      3e:	00 00       	nop
      40:	4f c4       	rjmp	.+2206   	; 0x8e0 <__bad_interrupt>
      42:	00 00       	nop
      44:	4d c4       	rjmp	.+2202   	; 0x8e0 <__bad_interrupt>
      46:	00 00       	nop
      48:	0c 94 53 10 	jmp	0x20a6	; 0x20a6 <__vector_18>
      4c:	49 c4       	rjmp	.+2194   	; 0x8e0 <__bad_interrupt>
      4e:	00 00       	nop
      50:	47 c4       	rjmp	.+2190   	; 0x8e0 <__bad_interrupt>
      52:	00 00       	nop
      54:	45 c4       	rjmp	.+2186   	; 0x8e0 <__bad_interrupt>
      56:	00 00       	nop
      58:	43 c4       	rjmp	.+2182   	; 0x8e0 <__bad_interrupt>
      5a:	00 00       	nop
      5c:	41 c4       	rjmp	.+2178   	; 0x8e0 <__bad_interrupt>
      5e:	00 00       	nop
      60:	3f c4       	rjmp	.+2174   	; 0x8e0 <__bad_interrupt>
      62:	00 00       	nop
      64:	3d c4       	rjmp	.+2170   	; 0x8e0 <__bad_interrupt>
      66:	00 00       	nop
      68:	3b c4       	rjmp	.+2166   	; 0x8e0 <__bad_interrupt>
      6a:	00 00       	nop
      6c:	39 c4       	rjmp	.+2162   	; 0x8e0 <__bad_interrupt>
      6e:	00 00       	nop
      70:	37 c4       	rjmp	.+2158   	; 0x8e0 <__bad_interrupt>
      72:	00 00       	nop
      74:	35 c4       	rjmp	.+2154   	; 0x8e0 <__bad_interrupt>
      76:	00 00       	nop
      78:	33 c4       	rjmp	.+2150   	; 0x8e0 <__bad_interrupt>
      7a:	00 00       	nop
      7c:	31 c4       	rjmp	.+2146   	; 0x8e0 <__bad_interrupt>
      7e:	00 00       	nop
      80:	2f c4       	rjmp	.+2142   	; 0x8e0 <__bad_interrupt>
      82:	00 00       	nop
      84:	2d c4       	rjmp	.+2138   	; 0x8e0 <__bad_interrupt>
      86:	00 00       	nop
      88:	2b c4       	rjmp	.+2134   	; 0x8e0 <__bad_interrupt>
      8a:	00 00       	nop
      8c:	29 c4       	rjmp	.+2130   	; 0x8e0 <__bad_interrupt>
      8e:	00 00       	nop
      90:	27 c4       	rjmp	.+2126   	; 0x8e0 <__bad_interrupt>
	...

00000094 <__trampolines_end>:
      94:	41 42       	sbci	r20, 0x21	; 33

00000096 <_ZL11requestMODE>:
      96:	21 21                                               !!

00000098 <_ZL10responseID>:
      98:	bb 07 bb 07                                         ....

0000009c <_ZL9requestID>:
      9c:	9b 07 9b 07                                         ....

000000a0 <_ZL11calc_offset>:
	...
      ac:	00 00 a0 c2 00 00 00 00 00 00 00 00 00 00 00 00     ................
      bc:	00 00 20 c2                                         .. .

000000c0 <_ZL11calc_factor>:
      c0:	00 00 80 3f 9a 99 99 3e 0a d7 a3 3c 00 00 80 3f     ...?...>...<...?
      d0:	cd cc cc 3d 9a 99 99 3e 00 00 80 3f 00 00 80 3f     ...=...>...?...?

000000e0 <_ZL11Msg_stopbit>:
      e0:	2b 3f 0c 37 39 2f 27 32                             +?.79/'2

000000e8 <_ZL12Msg_startbit>:
      e8:	26 38 00 30 31 28 21 2c                             &8.01(!,

000000f0 <_ZL7Msg_MOB>:
      f0:	00 00 00 02 03 03 04 00                             ........

000000f8 <_ZL6CAN_id>:
      f8:	2e 04 d7 05 fd 01 27 04 58 06 00 01 00 01 00 01     ......'.X.......
     108:	00 01 00 01 00 01 00 01 00 01                       ..........

00000112 <_ZL12zoe_logo_inv>:
     112:	80 40 ff ff ff ff ff ff ff ff ff ff ff ff ff ff     .@..............
     122:	ff ff ff ff ff ff ff ff 7f 7f 7f 3f 3f 3f 3f 3f     ...........?????
     132:	7f 7f ff ff ff cf 0f 0f 0f 0f 0f 0f 0f 07 07 07     ................
     142:	07 07 07 07 07 07 03 03 03 03 03 03 03 03 03 03     ................
     152:	03 03 03 03 03 03 03 03 03 03 03 03 03 03 03 03     ................
     162:	03 03 03 07 07 07 0f 0f 0f 1f 1f 3f 3f 7f ff ff     ...........??...
     172:	ff ff ff ff ff ff ff ff ff ff ff ff ff ff ff ff     ................
     182:	ff ff ff ff ff ff ff ff ff ff ff ff ff ff ff ff     ................
     192:	ff ff ff ff ff ff ff ff ff ff ff ff ff ff ff 7f     ................
     1a2:	1f 07 03 03 01 01 00 00 00 00 00 00 00 00 00 00     ................
     1b2:	00 00 00 01 07 1f 7f fe f8 e0 c0 00 00 00 00 00     ................
	...
     1e6:	00 00 00 80 80 80 80 80 80 80 80 80 81 81 83 83     ................
     1f6:	87 87 87 87 c7 c7 cf ff ff ff ff ff ff ff ff ff     ................
     206:	ff ff ff ff ff ff ff ff ff ff ff ff ff ff ff ff     ................
     216:	ff ff ff ff ff ff ff ff df c7 c1 c0 c0 c0 c0 c0     ................
     226:	c0 c0 e0 e0 e0 e0 e0 e0 e0 e0 e0 e0 e0 c0 c0 c0     ................
     236:	c0 c0 c0 e1 ef ff ff ff fe fe fe fe fe fe fc fe     ................
     246:	7e 7e 7e 7e 7e 7e 7e 7e 7e 7e 7e 7e 7e 7e 7e 7e     ~~~~~~~~~~~~~~~~
     256:	7f 7f 7f 7f 7f ff ff ff ff ff ff ff ff ff ff ff     ................
     266:	ff ff ff ff ff ff ff ff ff 7f 3f bf bf bf 7f 7f     ..........?.....
     276:	ff ff ff ff ff ff ff 7f 7f 7f 3f 3f 1f 1f 1f 0f     ..........??....
     286:	0f 0f 0f 3f ff ff ff ff ff ff ff ff ff ff ff ff     ...?............
     296:	ff ff ff ff ff ff ff ff ff ff ff ff ff ff ff ff     ................
     2a6:	ff ff ff ff ff ff ff ff ff ff ff ff ff ff ff ff     ................
     2b6:	ff ff ff ff ff ff ff ff ff ff ff ff ff ff ff fe     ................
     2c6:	fc fc f8 f8 f0 f0 f0 f0 e0 e0 e0 e0 e0 e0 e0 e0     ................
     2d6:	e0 f0 f0 f0 f0 f0 f0 f0 f0 f0 f0 f0 f8 f8 f8 f8     ................
     2e6:	f8 f9 f9 f9 f9 f9 f9 f1 f1 e0 e2 c7 8f 18 39 3b     ..............9;
     2f6:	1e 00 80 c0 f0 fc fc fc fc fc fe fe fe fe fe fe     ................
     306:	fe fe fe fe ff ff ff ff ff ff ff ff ff ff ff ff     ................
     316:	ff 3f 3f 7f ff ff ff ff ff ff ff ff ff ff ff ff     .??.............
     326:	ff ff ff ff ff ff ff ff ff ff ff ff ff ff ff ff     ................
     336:	ff ff 7f 8f 07 23 03 03 07 0f 0f 3f 7f ff ff ff     .....#.....?....
     346:	ff ff ff ff ff ff ff ff ff ff ff ff ff ff ff ff     ................
     356:	ff ff ff ff ff ff ff ff ff ff ff ff ff ff ff ff     ................
     366:	ff ff ff ff ff ff ff ff ff 7f 7f 7f 7f 7f 7f 7f     ................
     376:	7f 7f 7f 7f 3f 3f 3f 3f 3f 3f 3f 3f 3f 3f 3f 3f     ....????????????
     386:	3f 3f 3f 3f 7f ff ff ff ff ff ff 7f ff ff ff ff     ????............
     396:	20 00 00 00 00 03 0f 3f ff ff ff ff ff ff ff ff      ......?........
     3a6:	ff ff ff ff ff ff ff ff ff ff ff ff ff ff ff ff     ................
     3b6:	ff 1f 02 00 00 00 00 00 00 00 00 00 00 01 03 0f     ................
     3c6:	7f ff ff ff ff ff ff ff ff ff ff ff ff ff ff ff     ................
     3d6:	ff ff ff ff ff e7 e3 c3 83 01 01 01 01 01 01 00     ................
     3e6:	00 00 00 00 00 f0 f0 f0 f0 f0 f0 f0 f0 f0 f0 f0     ................
     3f6:	f0 f0 f0 f8 f8 f8 f8 f8 f8 f8 f8 f8 f8 80 80 a0     ................
     406:	e0 e0 c0 f0 fe 7f 7f 7f 7f 7f 3f 00 ff ff ff ff     ..........?.....
     416:	fe 00 00 00 00 00 00 00 01 07 1f 3f 7f 7f 7f 7f     ...........?....
     426:	ff ff ff ff ff ff ff ff ff ff ff ff ff ff ff ff     ................
     436:	ff f0 80 00 00 00 00 00 00 00 00 00 00 00 00 00     ................
     446:	00 03 0f 1f 1f 1f 1f 0f 0f 0f 0f 0f 0f 0f 0f 0f     ................
     456:	0f 0f 0f 0f 0f 8f c7 c7 c7 c7 c6 c7 c7 c7 c7 c7     ................
     466:	c6 c2 c2 e2 e2 e1 e1 e1 e1 e1 e3 e3 e3 f1 f1 f1     ................
     476:	f1 f0 f0 f0 f0 e1 c1 81 00 00 00 00 00 00 00 00     ................
     486:	00 00 00 00 00 00 80 80 c0 e0 f8 fe ff ff ff ff     ................
     496:	ff ff f8 f0 c0 c0 c0 c0 c0 c0 c0 c0 c0 c0 c0 c6     ................
     4a6:	c7 c7 c7 c7 c7 c7 c3 c3 c3 c3 c3 c3 c3 c3 c3 83     ................
     4b6:	83 83 83 80 80 80 80 80 80 80 80 80 80 80 80 80     ................
     4c6:	80 80 80 80 80 80 80 80 80 80 c0 c0 c0 c0 c0 c0     ................
     4d6:	c0 c0 c0 c0 c0 c0 c0 c0 e0 e0 e0 e0 e0 e0 e0 e0     ................
     4e6:	e0 e0 e0 e0 e0 f0 f0 f0 f0 f0 f0 f0 f0 f0 f0 f0     ................
     4f6:	f0 f8 f8 f8 f8 f8 f8 f8 f8 f8 fc fc fc fc fc fc     ................
     506:	fc fc fc fc fe fe fe fe fe fe ff ff ff ff           ..............

00000514 <_ZL8font_4x6>:
     514:	54 56 2a 3a 04 06 01 04 00 1b 04 1b 00 04 0e 04     TV*:............
     524:	00 10 18 00 00 04 04 04 00 10 00 00 00 18 04 03     ................
     534:	00 1f 11 1f 00 02 1f 00 00 1d 15 17 00 15 15 1f     ................
     544:	00 07 04 1f 00 17 15 1d 00 1f 15 1d 00 01 01 1f     ................
     554:	00 1f 15 1f 00 17 15 1f 00 00 0a 00                 ............

00000560 <_ZL8font_6x8>:
     560:	46 56 20 7f 06 08 01 06 00 00 00 00 00 00 00 00     FV .............
     570:	5f 00 00 00 00 07 00 07 00 00 14 7f 14 7f 14 00     _...............
     580:	24 2a 7f 2a 12 00 23 13 08 64 62 00 36 49 56 20     $*.*..#..db.6IV 
     590:	50 00 00 08 07 03 00 00 00 1c 22 41 00 00 00 41     P........."A...A
     5a0:	22 1c 00 00 2a 1c 7f 1c 2a 00 08 08 3e 08 08 00     "...*...*...>...
     5b0:	00 80 70 30 00 00 08 08 08 08 08 00 00 00 60 60     ..p0..........``
     5c0:	00 00 20 10 08 04 02 00 3e 51 49 45 3e 00 00 42     .. .....>QIE>..B
     5d0:	7f 40 00 00 42 61 51 49 46 00 21 41 49 4d 33 00     .@..BaQIF.!AIM3.
     5e0:	18 14 12 7f 10 00 27 45 45 45 39 00 3c 4a 49 49     ......'EEE9.<JII
     5f0:	30 00 41 21 11 09 07 00 36 49 49 49 36 00 06 49     0.A!....6III6..I
     600:	49 29 1e 00 00 00 14 00 00 00 00 40 34 00 00 00     I).........@4...
     610:	00 08 14 22 41 00 14 14 14 14 14 00 00 41 22 14     ..."A........A".
     620:	08 00 02 01 51 09 06 00 3e 41 5d 59 4e 00 7c 12     ....Q...>A]YN.|.
     630:	11 12 7c 00 7f 49 49 49 36 00 3e 41 41 41 22 00     ..|..III6.>AAA".
     640:	7f 41 41 41 3e 00 7f 49 49 49 41 00 7f 09 09 09     .AAA>..IIIA.....
     650:	01 00 3e 41 49 49 7a 00 7f 08 08 08 7f 00 00 41     ..>AIIz........A
     660:	7f 41 00 00 20 40 41 3f 01 00 7f 08 14 22 41 00     .A.. @A?....."A.
     670:	7f 40 40 40 40 00 7f 02 1c 02 7f 00 7f 04 08 10     .@@@@...........
     680:	7f 00 3e 41 41 41 3e 00 7f 09 09 09 06 00 3e 41     ..>AAA>.......>A
     690:	51 21 5e 00 7f 09 19 29 46 00 26 49 49 49 32 00     Q!^....)F.&III2.
     6a0:	01 01 7f 01 01 00 3f 40 40 40 3f 00 1f 20 40 20     ......?@@@?.. @ 
     6b0:	1f 00 3f 40 38 40 3f 00 63 14 08 14 63 00 03 04     ..?@8@?.c...c...
     6c0:	78 04 03 00 61 51 49 45 43 00 00 7f 41 41 41 00     x...aQIEC...AAA.
     6d0:	02 04 08 10 20 00 00 41 41 41 7f 00 04 02 01 02     .... ..AAA......
     6e0:	04 00 40 40 40 40 40 00 00 03 07 08 00 00 20 54     ..@@@@@....... T
     6f0:	54 54 78 00 7f 28 44 44 38 00 38 44 44 44 28 00     TTx..(DD8.8DDD(.
     700:	38 44 44 28 7f 00 38 54 54 54 18 00 00 08 7e 09     8DD(..8TTT....~.
     710:	02 00 18 a4 a4 a4 7c 00 7f 08 04 04 78 00 00 44     ......|.....x..D
     720:	7d 40 00 00 20 40 40 3d 00 00 7f 10 28 44 00 00     }@.. @@=....(D..
     730:	00 41 7f 40 00 00 7c 04 78 04 78 00 7c 08 04 04     .A.@..|.x.x.|...
     740:	78 00 38 44 44 44 38 00 fc 18 24 24 18 00 18 24     x.8DDD8...$$...$
     750:	24 18 fc 00 7c 08 04 04 08 00 48 54 54 54 24 00     $...|.....HTTT$.
     760:	04 04 3f 44 24 00 3c 40 40 20 7c 00 1c 20 40 20     ..?D$.<@@ |.. @ 
     770:	1c 00 3c 40 30 40 3c 00 44 28 10 28 44 00 4c 90     ..<@0@<.D(.(D.L.
     780:	90 90 7c 00 44 64 54 4c 44 00 00 08 36 41 00 00     ..|.DdTLD...6A..
     790:	00 00 77 00 00 00 00 41 36 08 00 00 02 01 02 04     ..w....A6.......
     7a0:	02 00 3c 26 23 26 3c 00 00 40 7a 10 f3 5a 00 a0     ..<&#&<..@z..Z..
     7b0:	72 4e 18 09 00 10 a5 d4 e8 00 00 e8 76 48 17 00     rN..........vH..
     7c0:	00 e4 0b 54 02 00 00 ca 9a 3b 00 00 00 e1 f5 05     ...T.....;......
     7d0:	00 00 80 96 98 00 00 00 40 42 0f 00 00 00 a0 86     ........@B......
     7e0:	01 00 00 00 10 27 00 00 00 00 e8 03 00 00 00 00     .....'..........
     7f0:	64 00 00 00 00 00 0a 00 00 00 00 00 01 00 00 00     d...............
     800:	00 00 2c 76 d8 88 dc 67 4f 08 23 df c1 df ae 59     ..,v...gO.#....Y
     810:	e1 b1 b7 96 e5 e3 e4 53 c6 3a e6 51 99 76 96 e8     .......S.:.Q.v..
     820:	e6 c2 84 26 eb 89 8c 9b 62 ed 40 7c 6f fc ef bc     ...&....b.@|o...
     830:	9c 9f 40 f2 ba a5 6f a5 f4 90 05 5a 2a f7 5c 93     ..@...o....Z*.\.
     840:	6b 6c f9 67 6d c1 1b fc e0 e4 0d 47 fe f5 20 e6     kl.gm......G.. .
     850:	b5 00 d0 ed 90 2e 03 00 94 35 77 05 00 80 84 1e     .........5w.....
     860:	08 00 00 20 4e 0a 00 00 00 c8 0c 33 33 33 33 0f     ... N......3333.
     870:	98 6e 12 83 11 41 ef 8d 21 14 89 3b e6 55 16 cf     .n...A..!..;.U..
     880:	fe e6 db 18 d1 84 4b 38 1b f7 7c 1d 90 1d a4 bb     ......K8..|.....
     890:	e4 24 20 32 84 72 5e 22 81 00 c9 f1 24 ec a1 e5     .$ 2.r^"....$...
     8a0:	3d 27                                               ='

000008a2 <__ctors_end>:
     8a2:	11 24       	eor	r1, r1
     8a4:	1f be       	out	0x3f, r1	; 63
     8a6:	cf ef       	ldi	r28, 0xFF	; 255
     8a8:	d0 e1       	ldi	r29, 0x10	; 16
     8aa:	de bf       	out	0x3e, r29	; 62
     8ac:	cd bf       	out	0x3d, r28	; 61

000008ae <__do_copy_data>:
     8ae:	11 e0       	ldi	r17, 0x01	; 1
     8b0:	a0 e0       	ldi	r26, 0x00	; 0
     8b2:	b1 e0       	ldi	r27, 0x01	; 1
     8b4:	e0 eb       	ldi	r30, 0xB0	; 176
     8b6:	fa e2       	ldi	r31, 0x2A	; 42
     8b8:	00 e0       	ldi	r16, 0x00	; 0
     8ba:	0b bf       	out	0x3b, r16	; 59
     8bc:	02 c0       	rjmp	.+4      	; 0x8c2 <__do_copy_data+0x14>
     8be:	07 90       	elpm	r0, Z+
     8c0:	0d 92       	st	X+, r0
     8c2:	a2 3a       	cpi	r26, 0xA2	; 162
     8c4:	b1 07       	cpc	r27, r17
     8c6:	d9 f7       	brne	.-10     	; 0x8be <__do_copy_data+0x10>

000008c8 <__do_clear_bss>:
     8c8:	27 e0       	ldi	r18, 0x07	; 7
     8ca:	a2 ea       	ldi	r26, 0xA2	; 162
     8cc:	b1 e0       	ldi	r27, 0x01	; 1
     8ce:	01 c0       	rjmp	.+2      	; 0x8d2 <.do_clear_bss_start>

000008d0 <.do_clear_bss_loop>:
     8d0:	1d 92       	st	X+, r1

000008d2 <.do_clear_bss_start>:
     8d2:	aa 34       	cpi	r26, 0x4A	; 74
     8d4:	b2 07       	cpc	r27, r18
     8d6:	e1 f7       	brne	.-8      	; 0x8d0 <.do_clear_bss_loop>
     8d8:	0e 94 f7 0e 	call	0x1dee	; 0x1dee <main>
     8dc:	0c 94 56 15 	jmp	0x2aac	; 0x2aac <_exit>

000008e0 <__bad_interrupt>:
     8e0:	8f cb       	rjmp	.-2274   	; 0x0 <__vectors>

000008e2 <_ZN3key6updateEv>:
Func: init_EEPROM
Desc: initializes the CAN Controller
Vars: ---
------------------------------*/
void EEPROM::init()
{
     8e2:	fc 01       	movw	r30, r24
     8e4:	a6 81       	ldd	r26, Z+6	; 0x06
     8e6:	b7 81       	ldd	r27, Z+7	; 0x07
     8e8:	8c 91       	ld	r24, X
     8ea:	22 81       	ldd	r18, Z+2	; 0x02
     8ec:	90 e0       	ldi	r25, 0x00	; 0
     8ee:	02 2e       	mov	r0, r18
     8f0:	02 c0       	rjmp	.+4      	; 0x8f6 <_ZN3key6updateEv+0x14>
     8f2:	95 95       	asr	r25
     8f4:	87 95       	ror	r24
     8f6:	0a 94       	dec	r0
     8f8:	e2 f7       	brpl	.-8      	; 0x8f2 <_ZN3key6updateEv+0x10>
     8fa:	80 fd       	sbrc	r24, 0
     8fc:	06 c0       	rjmp	.+12     	; 0x90a <_ZN3key6updateEv+0x28>
     8fe:	84 81       	ldd	r24, Z+4	; 0x04
     900:	8f 5f       	subi	r24, 0xFF	; 255
     902:	84 83       	std	Z+4, r24	; 0x04
     904:	81 e0       	ldi	r24, 0x01	; 1
     906:	81 83       	std	Z+1, r24	; 0x01
     908:	15 82       	std	Z+5, r1	; 0x05
     90a:	84 81       	ldd	r24, Z+4	; 0x04
     90c:	85 36       	cpi	r24, 0x65	; 101
     90e:	58 f0       	brcs	.+22     	; 0x926 <_ZN3key6updateEv+0x44>
     910:	84 e6       	ldi	r24, 0x64	; 100
     912:	84 83       	std	Z+4, r24	; 0x04
     914:	11 82       	std	Z+1, r1	; 0x01
     916:	83 81       	ldd	r24, Z+3	; 0x03
     918:	8f 5f       	subi	r24, 0xFF	; 255
     91a:	8b 3f       	cpi	r24, 0xFB	; 251
     91c:	10 f4       	brcc	.+4      	; 0x922 <_ZN3key6updateEv+0x40>
     91e:	83 83       	std	Z+3, r24	; 0x03
     920:	02 c0       	rjmp	.+4      	; 0x926 <_ZN3key6updateEv+0x44>
     922:	8a ef       	ldi	r24, 0xFA	; 250
     924:	83 83       	std	Z+3, r24	; 0x03
     926:	8c 91       	ld	r24, X
     928:	90 e0       	ldi	r25, 0x00	; 0
     92a:	02 c0       	rjmp	.+4      	; 0x930 <_ZN3key6updateEv+0x4e>
     92c:	95 95       	asr	r25
     92e:	87 95       	ror	r24
     930:	2a 95       	dec	r18
     932:	e2 f7       	brpl	.-8      	; 0x92c <_ZN3key6updateEv+0x4a>
     934:	80 ff       	sbrs	r24, 0
     936:	0f c0       	rjmp	.+30     	; 0x956 <_ZN3key6updateEv+0x74>
     938:	14 82       	std	Z+4, r1	; 0x04
     93a:	13 82       	std	Z+3, r1	; 0x03
     93c:	81 81       	ldd	r24, Z+1	; 0x01
     93e:	88 23       	and	r24, r24
     940:	51 f0       	breq	.+20     	; 0x956 <_ZN3key6updateEv+0x74>
     942:	85 81       	ldd	r24, Z+5	; 0x05
     944:	8f 5f       	subi	r24, 0xFF	; 255
     946:	85 83       	std	Z+5, r24	; 0x05
     948:	91 e0       	ldi	r25, 0x01	; 1
     94a:	90 83       	st	Z, r25
     94c:	80 31       	cpi	r24, 0x10	; 16
     94e:	18 f0       	brcs	.+6      	; 0x956 <_ZN3key6updateEv+0x74>
     950:	15 82       	std	Z+5, r1	; 0x05
     952:	10 82       	st	Z, r1
     954:	11 82       	std	Z+1, r1	; 0x01
     956:	08 95       	ret

00000958 <_ZN9dog_7565R7spi_outEh>:
     958:	88 e0       	ldi	r24, 0x08	; 8
     95a:	66 23       	and	r22, r22
     95c:	14 f4       	brge	.+4      	; 0x962 <_ZN9dog_7565R7spi_outEh+0xa>
     95e:	43 9a       	sbi	0x08, 3	; 8
     960:	01 c0       	rjmp	.+2      	; 0x964 <_ZN9dog_7565R7spi_outEh+0xc>
     962:	43 98       	cbi	0x08, 3	; 8
     964:	41 98       	cbi	0x08, 1	; 8
     966:	41 9a       	sbi	0x08, 1	; 8
     968:	66 0f       	add	r22, r22
     96a:	81 50       	subi	r24, 0x01	; 1
     96c:	b1 f7       	brne	.-20     	; 0x95a <_ZN9dog_7565R7spi_outEh+0x2>
     96e:	08 95       	ret

00000970 <_ZN9dog_7565R7commandEh>:
     970:	42 98       	cbi	0x08, 2	; 8
     972:	f2 cf       	rjmp	.-28     	; 0x958 <_ZN9dog_7565R7spi_outEh>
     974:	08 95       	ret

00000976 <_ZN9dog_7565R8positionEhh>:
     976:	0f 93       	push	r16
     978:	1f 93       	push	r17
     97a:	cf 93       	push	r28
     97c:	df 93       	push	r29
     97e:	8c 01       	movw	r16, r24
     980:	d6 2f       	mov	r29, r22
     982:	c4 2f       	mov	r28, r20
     984:	62 95       	swap	r22
     986:	6f 70       	andi	r22, 0x0F	; 15
     988:	60 5f       	subi	r22, 0xF0	; 240
     98a:	f2 df       	rcall	.-28     	; 0x970 <_ZN9dog_7565R7commandEh>
     98c:	6d 2f       	mov	r22, r29
     98e:	6f 70       	andi	r22, 0x0F	; 15
     990:	c8 01       	movw	r24, r16
     992:	ee df       	rcall	.-36     	; 0x970 <_ZN9dog_7565R7commandEh>
     994:	6c 2f       	mov	r22, r28
     996:	6f 70       	andi	r22, 0x0F	; 15
     998:	60 55       	subi	r22, 0x50	; 80
     99a:	c8 01       	movw	r24, r16
     99c:	e9 df       	rcall	.-46     	; 0x970 <_ZN9dog_7565R7commandEh>
     99e:	df 91       	pop	r29
     9a0:	cf 91       	pop	r28
     9a2:	1f 91       	pop	r17
     9a4:	0f 91       	pop	r16
     9a6:	08 95       	ret

000009a8 <_ZN9dog_7565R4dataEh>:
     9a8:	42 9a       	sbi	0x08, 2	; 8
     9aa:	d6 cf       	rjmp	.-84     	; 0x958 <_ZN9dog_7565R7spi_outEh>
     9ac:	08 95       	ret

000009ae <_ZN9dog_7565R5clearEv>:
     9ae:	ff 92       	push	r15
     9b0:	0f 93       	push	r16
     9b2:	1f 93       	push	r17
     9b4:	cf 93       	push	r28
     9b6:	df 93       	push	r29
     9b8:	8c 01       	movw	r16, r24
     9ba:	d0 e0       	ldi	r29, 0x00	; 0
     9bc:	68 94       	set
     9be:	ff 24       	eor	r15, r15
     9c0:	f7 f8       	bld	r15, 7
     9c2:	4d 2f       	mov	r20, r29
     9c4:	60 e0       	ldi	r22, 0x00	; 0
     9c6:	c8 01       	movw	r24, r16
     9c8:	d6 df       	rcall	.-84     	; 0x976 <_ZN9dog_7565R8positionEhh>
     9ca:	cf 2d       	mov	r28, r15
     9cc:	60 e0       	ldi	r22, 0x00	; 0
     9ce:	c8 01       	movw	r24, r16
     9d0:	eb df       	rcall	.-42     	; 0x9a8 <_ZN9dog_7565R4dataEh>
     9d2:	c1 50       	subi	r28, 0x01	; 1
     9d4:	d9 f7       	brne	.-10     	; 0x9cc <_ZN9dog_7565R5clearEv+0x1e>
     9d6:	df 5f       	subi	r29, 0xFF	; 255
     9d8:	d8 30       	cpi	r29, 0x08	; 8
     9da:	99 f7       	brne	.-26     	; 0x9c2 <_ZN9dog_7565R5clearEv+0x14>
     9dc:	df 91       	pop	r29
     9de:	cf 91       	pop	r28
     9e0:	1f 91       	pop	r17
     9e2:	0f 91       	pop	r16
     9e4:	ff 90       	pop	r15
     9e6:	08 95       	ret

000009e8 <_ZN9dog_7565R4initEv>:
     9e8:	cf 93       	push	r28
     9ea:	df 93       	push	r29
     9ec:	ec 01       	movw	r28, r24
     9ee:	42 9a       	sbi	0x08, 2	; 8
     9f0:	44 9a       	sbi	0x08, 4	; 8
     9f2:	41 9a       	sbi	0x08, 1	; 8
     9f4:	40 9a       	sbi	0x08, 0	; 8
     9f6:	43 9a       	sbi	0x08, 3	; 8
     9f8:	87 b1       	in	r24, 0x07	; 7
     9fa:	8f 61       	ori	r24, 0x1F	; 31
     9fc:	87 b9       	out	0x07, r24	; 7
     9fe:	2f ef       	ldi	r18, 0xFF	; 255
     a00:	80 e7       	ldi	r24, 0x70	; 112
     a02:	92 e0       	ldi	r25, 0x02	; 2
     a04:	21 50       	subi	r18, 0x01	; 1
     a06:	80 40       	sbci	r24, 0x00	; 0
     a08:	90 40       	sbci	r25, 0x00	; 0
     a0a:	e1 f7       	brne	.-8      	; 0xa04 <_ZN9dog_7565R4initEv+0x1c>
     a0c:	00 c0       	rjmp	.+0      	; 0xa0e <_ZN9dog_7565R4initEv+0x26>
     a0e:	00 00       	nop
     a10:	44 98       	cbi	0x08, 4	; 8
     a12:	42 98       	cbi	0x08, 2	; 8
     a14:	60 e4       	ldi	r22, 0x40	; 64
     a16:	ce 01       	movw	r24, r28
     a18:	9f df       	rcall	.-194    	; 0x958 <_ZN9dog_7565R7spi_outEh>
     a1a:	61 ea       	ldi	r22, 0xA1	; 161
     a1c:	ce 01       	movw	r24, r28
     a1e:	9c df       	rcall	.-200    	; 0x958 <_ZN9dog_7565R7spi_outEh>
     a20:	60 ec       	ldi	r22, 0xC0	; 192
     a22:	ce 01       	movw	r24, r28
     a24:	99 df       	rcall	.-206    	; 0x958 <_ZN9dog_7565R7spi_outEh>
     a26:	66 ea       	ldi	r22, 0xA6	; 166
     a28:	ce 01       	movw	r24, r28
     a2a:	96 df       	rcall	.-212    	; 0x958 <_ZN9dog_7565R7spi_outEh>
     a2c:	62 ea       	ldi	r22, 0xA2	; 162
     a2e:	ce 01       	movw	r24, r28
     a30:	93 df       	rcall	.-218    	; 0x958 <_ZN9dog_7565R7spi_outEh>
     a32:	6f e2       	ldi	r22, 0x2F	; 47
     a34:	ce 01       	movw	r24, r28
     a36:	90 df       	rcall	.-224    	; 0x958 <_ZN9dog_7565R7spi_outEh>
     a38:	68 ef       	ldi	r22, 0xF8	; 248
     a3a:	ce 01       	movw	r24, r28
     a3c:	8d df       	rcall	.-230    	; 0x958 <_ZN9dog_7565R7spi_outEh>
     a3e:	60 e0       	ldi	r22, 0x00	; 0
     a40:	ce 01       	movw	r24, r28
     a42:	8a df       	rcall	.-236    	; 0x958 <_ZN9dog_7565R7spi_outEh>
     a44:	67 e2       	ldi	r22, 0x27	; 39
     a46:	ce 01       	movw	r24, r28
     a48:	87 df       	rcall	.-242    	; 0x958 <_ZN9dog_7565R7spi_outEh>
     a4a:	61 e8       	ldi	r22, 0x81	; 129
     a4c:	ce 01       	movw	r24, r28
     a4e:	84 df       	rcall	.-248    	; 0x958 <_ZN9dog_7565R7spi_outEh>
     a50:	66 e1       	ldi	r22, 0x16	; 22
     a52:	ce 01       	movw	r24, r28
     a54:	81 df       	rcall	.-254    	; 0x958 <_ZN9dog_7565R7spi_outEh>
     a56:	6c ea       	ldi	r22, 0xAC	; 172
     a58:	ce 01       	movw	r24, r28
     a5a:	7e df       	rcall	.-260    	; 0x958 <_ZN9dog_7565R7spi_outEh>
     a5c:	60 e0       	ldi	r22, 0x00	; 0
     a5e:	ce 01       	movw	r24, r28
     a60:	7b df       	rcall	.-266    	; 0x958 <_ZN9dog_7565R7spi_outEh>
     a62:	6f ea       	ldi	r22, 0xAF	; 175
     a64:	ce 01       	movw	r24, r28
     a66:	78 df       	rcall	.-272    	; 0x958 <_ZN9dog_7565R7spi_outEh>
     a68:	ce 01       	movw	r24, r28
     a6a:	a1 df       	rcall	.-190    	; 0x9ae <_ZN9dog_7565R5clearEv>
     a6c:	df 91       	pop	r29
     a6e:	cf 91       	pop	r28
     a70:	08 95       	ret

00000a72 <_ZN12CAN_Twizplay4initEv>:
     a72:	2f 92       	push	r2
     a74:	3f 92       	push	r3
     a76:	4f 92       	push	r4
     a78:	5f 92       	push	r5
     a7a:	6f 92       	push	r6
     a7c:	7f 92       	push	r7
     a7e:	8f 92       	push	r8
     a80:	9f 92       	push	r9
     a82:	af 92       	push	r10
     a84:	bf 92       	push	r11
     a86:	cf 92       	push	r12
     a88:	df 92       	push	r13
     a8a:	ef 92       	push	r14
     a8c:	ff 92       	push	r15
     a8e:	0f 93       	push	r16
     a90:	1f 93       	push	r17
     a92:	cf 93       	push	r28
     a94:	df 93       	push	r29
     a96:	55 9a       	sbi	0x0a, 5	; 10
     a98:	56 98       	cbi	0x0a, 6	; 10
     a9a:	80 eb       	ldi	r24, 0xB0	; 176
     a9c:	80 93 db 00 	sts	0x00DB, r24
     aa0:	80 e6       	ldi	r24, 0x60	; 96
     aa2:	80 93 df 00 	sts	0x00DF, r24
     aa6:	10 92 de 00 	sts	0x00DE, r1
     aaa:	82 e0       	ldi	r24, 0x02	; 2
     aac:	80 93 e2 00 	sts	0x00E2, r24
     ab0:	9c e0       	ldi	r25, 0x0C	; 12
     ab2:	90 93 e3 00 	sts	0x00E3, r25
     ab6:	97 e3       	ldi	r25, 0x37	; 55
     ab8:	90 93 e4 00 	sts	0x00E4, r25
     abc:	80 93 d8 00 	sts	0x00D8, r24
     ac0:	88 ef       	ldi	r24, 0xF8	; 248
     ac2:	90 e0       	ldi	r25, 0x00	; 0
     ac4:	71 2c       	mov	r7, r1
     ac6:	0f 2e       	mov	r0, r31
     ac8:	fd ee       	ldi	r31, 0xED	; 237
     aca:	cf 2e       	mov	r12, r31
     acc:	d1 2c       	mov	r13, r1
     ace:	f0 2d       	mov	r31, r0
     ad0:	0f 2e       	mov	r0, r31
     ad2:	fe ee       	ldi	r31, 0xEE	; 238
     ad4:	ef 2e       	mov	r14, r31
     ad6:	f1 2c       	mov	r15, r1
     ad8:	f0 2d       	mov	r31, r0
     ada:	0f ee       	ldi	r16, 0xEF	; 239
     adc:	10 e0       	ldi	r17, 0x00	; 0
     ade:	60 ef       	ldi	r22, 0xF0	; 240
     ae0:	70 e0       	ldi	r23, 0x00	; 0
     ae2:	41 ef       	ldi	r20, 0xF1	; 241
     ae4:	50 e0       	ldi	r21, 0x00	; 0
     ae6:	c2 ef       	ldi	r28, 0xF2	; 242
     ae8:	d0 e0       	ldi	r29, 0x00	; 0
     aea:	a3 ef       	ldi	r26, 0xF3	; 243
     aec:	b0 e0       	ldi	r27, 0x00	; 0
     aee:	0f 2e       	mov	r0, r31
     af0:	f4 ef       	ldi	r31, 0xF4	; 244
     af2:	af 2e       	mov	r10, r31
     af4:	b1 2c       	mov	r11, r1
     af6:	f0 2d       	mov	r31, r0
     af8:	0f 2e       	mov	r0, r31
     afa:	f5 ef       	ldi	r31, 0xF5	; 245
     afc:	8f 2e       	mov	r8, r31
     afe:	91 2c       	mov	r9, r1
     b00:	f0 2d       	mov	r31, r0
     b02:	0f 2e       	mov	r0, r31
     b04:	f6 ef       	ldi	r31, 0xF6	; 246
     b06:	2f 2e       	mov	r2, r31
     b08:	31 2c       	mov	r3, r1
     b0a:	f0 2d       	mov	r31, r0
     b0c:	66 24       	eor	r6, r6
     b0e:	6a 94       	dec	r6
     b10:	0f 2e       	mov	r0, r31
     b12:	f7 ef       	ldi	r31, 0xF7	; 247
     b14:	4f 2e       	mov	r4, r31
     b16:	51 2c       	mov	r5, r1
     b18:	f0 2d       	mov	r31, r0
     b1a:	27 2d       	mov	r18, r7
     b1c:	22 95       	swap	r18
     b1e:	20 7f       	andi	r18, 0xF0	; 240
     b20:	f6 01       	movw	r30, r12
     b22:	20 83       	st	Z, r18
     b24:	f7 01       	movw	r30, r14
     b26:	10 82       	st	Z, r1
     b28:	20 ec       	ldi	r18, 0xC0	; 192
     b2a:	f8 01       	movw	r30, r16
     b2c:	20 83       	st	Z, r18
     b2e:	fb 01       	movw	r30, r22
     b30:	10 82       	st	Z, r1
     b32:	fa 01       	movw	r30, r20
     b34:	10 82       	st	Z, r1
     b36:	fc 01       	movw	r30, r24
     b38:	25 91       	lpm	r18, Z+
     b3a:	34 91       	lpm	r19, Z
     b3c:	22 95       	swap	r18
     b3e:	22 0f       	add	r18, r18
     b40:	20 7e       	andi	r18, 0xE0	; 224
     b42:	28 83       	st	Y, r18
     b44:	fc 01       	movw	r30, r24
     b46:	25 91       	lpm	r18, Z+
     b48:	34 91       	lpm	r19, Z
     b4a:	36 95       	lsr	r19
     b4c:	27 95       	ror	r18
     b4e:	36 95       	lsr	r19
     b50:	27 95       	ror	r18
     b52:	36 95       	lsr	r19
     b54:	27 95       	ror	r18
     b56:	2c 93       	st	X, r18
     b58:	f5 01       	movw	r30, r10
     b5a:	10 82       	st	Z, r1
     b5c:	f4 01       	movw	r30, r8
     b5e:	10 82       	st	Z, r1
     b60:	f1 01       	movw	r30, r2
     b62:	60 82       	st	Z, r6
     b64:	f2 01       	movw	r30, r4
     b66:	60 82       	st	Z, r6
     b68:	73 94       	inc	r7
     b6a:	02 96       	adiw	r24, 0x02	; 2
     b6c:	fd e0       	ldi	r31, 0x0D	; 13
     b6e:	7f 12       	cpse	r7, r31
     b70:	d4 cf       	rjmp	.-88     	; 0xb1a <_ZN12CAN_Twizplay4initEv+0xa8>
     b72:	df 91       	pop	r29
     b74:	cf 91       	pop	r28
     b76:	1f 91       	pop	r17
     b78:	0f 91       	pop	r16
     b7a:	ff 90       	pop	r15
     b7c:	ef 90       	pop	r14
     b7e:	df 90       	pop	r13
     b80:	cf 90       	pop	r12
     b82:	bf 90       	pop	r11
     b84:	af 90       	pop	r10
     b86:	9f 90       	pop	r9
     b88:	8f 90       	pop	r8
     b8a:	7f 90       	pop	r7
     b8c:	6f 90       	pop	r6
     b8e:	5f 90       	pop	r5
     b90:	4f 90       	pop	r4
     b92:	3f 90       	pop	r3
     b94:	2f 90       	pop	r2
     b96:	08 95       	ret

00000b98 <_ZN12CAN_Twizplay7init_TPEh>:
     b98:	4f 92       	push	r4
     b9a:	5f 92       	push	r5
     b9c:	6f 92       	push	r6
     b9e:	7f 92       	push	r7
     ba0:	8f 92       	push	r8
     ba2:	9f 92       	push	r9
     ba4:	af 92       	push	r10
     ba6:	bf 92       	push	r11
     ba8:	cf 92       	push	r12
     baa:	df 92       	push	r13
     bac:	ef 92       	push	r14
     bae:	ff 92       	push	r15
     bb0:	0f 93       	push	r16
     bb2:	1f 93       	push	r17
     bb4:	cf 93       	push	r28
     bb6:	df 93       	push	r29
     bb8:	0f 2e       	mov	r0, r31
     bba:	fd ee       	ldi	r31, 0xED	; 237
     bbc:	cf 2e       	mov	r12, r31
     bbe:	d1 2c       	mov	r13, r1
     bc0:	f0 2d       	mov	r31, r0
     bc2:	80 ed       	ldi	r24, 0xD0	; 208
     bc4:	e6 01       	movw	r28, r12
     bc6:	88 83       	st	Y, r24
     bc8:	0f 2e       	mov	r0, r31
     bca:	fe ee       	ldi	r31, 0xEE	; 238
     bcc:	ef 2e       	mov	r14, r31
     bce:	f1 2c       	mov	r15, r1
     bd0:	f0 2d       	mov	r31, r0
     bd2:	f7 01       	movw	r30, r14
     bd4:	10 82       	st	Z, r1
     bd6:	0f ee       	ldi	r16, 0xEF	; 239
     bd8:	10 e0       	ldi	r17, 0x00	; 0
     bda:	80 ec       	ldi	r24, 0xC0	; 192
     bdc:	e8 01       	movw	r28, r16
     bde:	88 83       	st	Y, r24
     be0:	40 ef       	ldi	r20, 0xF0	; 240
     be2:	50 e0       	ldi	r21, 0x00	; 0
     be4:	fa 01       	movw	r30, r20
     be6:	10 82       	st	Z, r1
     be8:	21 ef       	ldi	r18, 0xF1	; 241
     bea:	30 e0       	ldi	r19, 0x00	; 0
     bec:	e9 01       	movw	r28, r18
     bee:	18 82       	st	Y, r1
     bf0:	70 e0       	ldi	r23, 0x00	; 0
     bf2:	66 0f       	add	r22, r22
     bf4:	77 1f       	adc	r23, r23
     bf6:	db 01       	movw	r26, r22
     bf8:	a8 56       	subi	r26, 0x68	; 104
     bfa:	bf 4f       	sbci	r27, 0xFF	; 255
     bfc:	fd 01       	movw	r30, r26
     bfe:	85 91       	lpm	r24, Z+
     c00:	94 91       	lpm	r25, Z
     c02:	e8 2f       	mov	r30, r24
     c04:	e2 95       	swap	r30
     c06:	ee 0f       	add	r30, r30
     c08:	e0 7e       	andi	r30, 0xE0	; 224
     c0a:	82 ef       	ldi	r24, 0xF2	; 242
     c0c:	90 e0       	ldi	r25, 0x00	; 0
     c0e:	ec 01       	movw	r28, r24
     c10:	e8 83       	st	Y, r30
     c12:	fd 01       	movw	r30, r26
     c14:	a5 91       	lpm	r26, Z+
     c16:	b4 91       	lpm	r27, Z
     c18:	b6 95       	lsr	r27
     c1a:	a7 95       	ror	r26
     c1c:	b6 95       	lsr	r27
     c1e:	a7 95       	ror	r26
     c20:	b6 95       	lsr	r27
     c22:	a7 95       	ror	r26
     c24:	c3 ef       	ldi	r28, 0xF3	; 243
     c26:	d0 e0       	ldi	r29, 0x00	; 0
     c28:	a8 83       	st	Y, r26
     c2a:	a4 ef       	ldi	r26, 0xF4	; 244
     c2c:	b0 e0       	ldi	r27, 0x00	; 0
     c2e:	1c 92       	st	X, r1
     c30:	0f 2e       	mov	r0, r31
     c32:	f5 ef       	ldi	r31, 0xF5	; 245
     c34:	af 2e       	mov	r10, r31
     c36:	b1 2c       	mov	r11, r1
     c38:	f0 2d       	mov	r31, r0
     c3a:	f5 01       	movw	r30, r10
     c3c:	10 82       	st	Z, r1
     c3e:	0f 2e       	mov	r0, r31
     c40:	f6 ef       	ldi	r31, 0xF6	; 246
     c42:	8f 2e       	mov	r8, r31
     c44:	91 2c       	mov	r9, r1
     c46:	f0 2d       	mov	r31, r0
     c48:	55 24       	eor	r5, r5
     c4a:	5a 94       	dec	r5
     c4c:	f4 01       	movw	r30, r8
     c4e:	50 82       	st	Z, r5
     c50:	0f 2e       	mov	r0, r31
     c52:	f7 ef       	ldi	r31, 0xF7	; 247
     c54:	6f 2e       	mov	r6, r31
     c56:	71 2c       	mov	r7, r1
     c58:	f0 2d       	mov	r31, r0
     c5a:	f3 01       	movw	r30, r6
     c5c:	50 82       	st	Z, r5
     c5e:	0f 2e       	mov	r0, r31
     c60:	f0 ee       	ldi	r31, 0xE0	; 224
     c62:	4f 2e       	mov	r4, r31
     c64:	f0 2d       	mov	r31, r0
     c66:	f6 01       	movw	r30, r12
     c68:	40 82       	st	Z, r4
     c6a:	f7 01       	movw	r30, r14
     c6c:	10 82       	st	Z, r1
     c6e:	f8 01       	movw	r30, r16
     c70:	10 82       	st	Z, r1
     c72:	fa 01       	movw	r30, r20
     c74:	10 82       	st	Z, r1
     c76:	f9 01       	movw	r30, r18
     c78:	10 82       	st	Z, r1
     c7a:	64 56       	subi	r22, 0x64	; 100
     c7c:	7f 4f       	sbci	r23, 0xFF	; 255
     c7e:	fb 01       	movw	r30, r22
     c80:	25 91       	lpm	r18, Z+
     c82:	34 91       	lpm	r19, Z
     c84:	22 95       	swap	r18
     c86:	22 0f       	add	r18, r18
     c88:	20 7e       	andi	r18, 0xE0	; 224
     c8a:	fc 01       	movw	r30, r24
     c8c:	20 83       	st	Z, r18
     c8e:	fb 01       	movw	r30, r22
     c90:	85 91       	lpm	r24, Z+
     c92:	94 91       	lpm	r25, Z
     c94:	96 95       	lsr	r25
     c96:	87 95       	ror	r24
     c98:	96 95       	lsr	r25
     c9a:	87 95       	ror	r24
     c9c:	96 95       	lsr	r25
     c9e:	87 95       	ror	r24
     ca0:	88 83       	st	Y, r24
     ca2:	1c 92       	st	X, r1
     ca4:	e5 01       	movw	r28, r10
     ca6:	18 82       	st	Y, r1
     ca8:	f4 01       	movw	r30, r8
     caa:	50 82       	st	Z, r5
     cac:	e3 01       	movw	r28, r6
     cae:	58 82       	st	Y, r5
     cb0:	df 91       	pop	r29
     cb2:	cf 91       	pop	r28
     cb4:	1f 91       	pop	r17
     cb6:	0f 91       	pop	r16
     cb8:	ff 90       	pop	r15
     cba:	ef 90       	pop	r14
     cbc:	df 90       	pop	r13
     cbe:	cf 90       	pop	r12
     cc0:	bf 90       	pop	r11
     cc2:	af 90       	pop	r10
     cc4:	9f 90       	pop	r9
     cc6:	8f 90       	pop	r8
     cc8:	7f 90       	pop	r7
     cca:	6f 90       	pop	r6
     ccc:	5f 90       	pop	r5
     cce:	4f 90       	pop	r4
     cd0:	08 95       	ret

00000cd2 <_ZN12CAN_Twizplay12Can_start_TPEh>:
     cd2:	9c 01       	movw	r18, r24
     cd4:	fc 01       	movw	r30, r24
     cd6:	e7 50       	subi	r30, 0x07	; 7
     cd8:	ff 4f       	sbci	r31, 0xFF	; 255
     cda:	10 82       	st	Z, r1
     cdc:	31 96       	adiw	r30, 0x01	; 1
     cde:	10 82       	st	Z, r1
     ce0:	32 97       	sbiw	r30, 0x02	; 2
     ce2:	10 82       	st	Z, r1
     ce4:	33 96       	adiw	r30, 0x03	; 3
     ce6:	10 82       	st	Z, r1
     ce8:	80 ee       	ldi	r24, 0xE0	; 224
     cea:	80 93 ed 00 	sts	0x00ED, r24
     cee:	88 e0       	ldi	r24, 0x08	; 8
     cf0:	80 93 ef 00 	sts	0x00EF, r24
     cf4:	aa ef       	ldi	r26, 0xFA	; 250
     cf6:	b0 e0       	ldi	r27, 0x00	; 0
     cf8:	82 e0       	ldi	r24, 0x02	; 2
     cfa:	8c 93       	st	X, r24
     cfc:	70 e0       	ldi	r23, 0x00	; 0
     cfe:	fb 01       	movw	r30, r22
     d00:	ea 56       	subi	r30, 0x6A	; 106
     d02:	ff 4f       	sbci	r31, 0xFF	; 255
     d04:	85 91       	lpm	r24, Z+
     d06:	94 91       	lpm	r25, Z
     d08:	8c 93       	st	X, r24
     d0a:	fb 01       	movw	r30, r22
     d0c:	ec 56       	subi	r30, 0x6C	; 108
     d0e:	ff 4f       	sbci	r31, 0xFF	; 255
     d10:	85 91       	lpm	r24, Z+
     d12:	94 91       	lpm	r25, Z
     d14:	8c 93       	st	X, r24
     d16:	85 e5       	ldi	r24, 0x55	; 85
     d18:	8c 93       	st	X, r24
     d1a:	8c 93       	st	X, r24
     d1c:	8c 93       	st	X, r24
     d1e:	8c 93       	st	X, r24
     d20:	8c 93       	st	X, r24
     d22:	e9 ed       	ldi	r30, 0xD9	; 217
     d24:	f0 e0       	ldi	r31, 0x00	; 0
     d26:	90 81       	ld	r25, Z
     d28:	94 fd       	sbrc	r25, 4
     d2a:	fd cf       	rjmp	.-6      	; 0xd26 <_ZN12CAN_Twizplay12Can_start_TPEh+0x54>
     d2c:	ef ee       	ldi	r30, 0xEF	; 239
     d2e:	f0 e0       	ldi	r31, 0x00	; 0
     d30:	80 81       	ld	r24, Z
     d32:	80 64       	ori	r24, 0x40	; 64
     d34:	80 83       	st	Z, r24
     d36:	f9 01       	movw	r30, r18
     d38:	e7 50       	subi	r30, 0x07	; 7
     d3a:	ff 4f       	sbci	r31, 0xFF	; 255
     d3c:	80 81       	ld	r24, Z
     d3e:	8f 5f       	subi	r24, 0xFF	; 255
     d40:	80 83       	st	Z, r24
     d42:	08 95       	ret

00000d44 <_ZN12CAN_Twizplay18Can_FlowControl_TPEh>:
     d44:	9c 01       	movw	r18, r24
     d46:	80 ee       	ldi	r24, 0xE0	; 224
     d48:	80 93 ed 00 	sts	0x00ED, r24
     d4c:	88 e0       	ldi	r24, 0x08	; 8
     d4e:	80 93 ef 00 	sts	0x00EF, r24
     d52:	ea ef       	ldi	r30, 0xFA	; 250
     d54:	f0 e0       	ldi	r31, 0x00	; 0
     d56:	80 e3       	ldi	r24, 0x30	; 48
     d58:	80 83       	st	Z, r24
     d5a:	10 82       	st	Z, r1
     d5c:	81 e0       	ldi	r24, 0x01	; 1
     d5e:	80 83       	st	Z, r24
     d60:	95 e5       	ldi	r25, 0x55	; 85
     d62:	90 83       	st	Z, r25
     d64:	90 83       	st	Z, r25
     d66:	90 83       	st	Z, r25
     d68:	90 83       	st	Z, r25
     d6a:	90 83       	st	Z, r25
     d6c:	e9 ed       	ldi	r30, 0xD9	; 217
     d6e:	f0 e0       	ldi	r31, 0x00	; 0
     d70:	90 81       	ld	r25, Z
     d72:	94 fd       	sbrc	r25, 4
     d74:	fd cf       	rjmp	.-6      	; 0xd70 <_ZN12CAN_Twizplay18Can_FlowControl_TPEh+0x2c>
     d76:	ef ee       	ldi	r30, 0xEF	; 239
     d78:	f0 e0       	ldi	r31, 0x00	; 0
     d7a:	80 81       	ld	r24, Z
     d7c:	80 64       	ori	r24, 0x40	; 64
     d7e:	80 83       	st	Z, r24
     d80:	f9 01       	movw	r30, r18
     d82:	e7 50       	subi	r30, 0x07	; 7
     d84:	ff 4f       	sbci	r31, 0xFF	; 255
     d86:	80 81       	ld	r24, Z
     d88:	8f 5f       	subi	r24, 0xFF	; 255
     d8a:	80 83       	st	Z, r24
     d8c:	08 95       	ret

00000d8e <_ZN12CAN_Twizplay5storeEPhh>:
     d8e:	cf 92       	push	r12
     d90:	df 92       	push	r13
     d92:	ef 92       	push	r14
     d94:	ff 92       	push	r15
     d96:	0f 93       	push	r16
     d98:	1f 93       	push	r17
     d9a:	cf 93       	push	r28
     d9c:	df 93       	push	r29
     d9e:	50 91 fa 00 	lds	r21, 0x00FA
     da2:	25 2f       	mov	r18, r21
     da4:	30 e0       	ldi	r19, 0x00	; 0
     da6:	35 95       	asr	r19
     da8:	27 95       	ror	r18
     daa:	35 95       	asr	r19
     dac:	27 95       	ror	r18
     dae:	35 95       	asr	r19
     db0:	27 95       	ror	r18
     db2:	35 95       	asr	r19
     db4:	27 95       	ror	r18
     db6:	fc 01       	movw	r30, r24
     db8:	e4 50       	subi	r30, 0x04	; 4
     dba:	ff 4f       	sbci	r31, 0xFF	; 255
     dbc:	20 83       	st	Z, r18
     dbe:	33 27       	eor	r19, r19
     dc0:	22 30       	cpi	r18, 0x02	; 2
     dc2:	31 05       	cpc	r19, r1
     dc4:	24 f0       	brlt	.+8      	; 0xdce <_ZN12CAN_Twizplay5storeEPhh+0x40>
     dc6:	22 30       	cpi	r18, 0x02	; 2
     dc8:	31 05       	cpc	r19, r1
     dca:	e9 f1       	breq	.+122    	; 0xe46 <_ZN12CAN_Twizplay5storeEPhh+0xb8>
     dcc:	6b c0       	rjmp	.+214    	; 0xea4 <_ZN12CAN_Twizplay5storeEPhh+0x116>
     dce:	fc 01       	movw	r30, r24
     dd0:	e0 52       	subi	r30, 0x20	; 32
     dd2:	ff 4f       	sbci	r31, 0xFF	; 255
     dd4:	50 83       	st	Z, r21
     dd6:	ea ef       	ldi	r30, 0xFA	; 250
     dd8:	f0 e0       	ldi	r31, 0x00	; 0
     dda:	20 81       	ld	r18, Z
     ddc:	dc 01       	movw	r26, r24
     dde:	af 51       	subi	r26, 0x1F	; 31
     de0:	bf 4f       	sbci	r27, 0xFF	; 255
     de2:	2c 93       	st	X, r18
     de4:	20 81       	ld	r18, Z
     de6:	11 96       	adiw	r26, 0x01	; 1
     de8:	2c 93       	st	X, r18
     dea:	20 81       	ld	r18, Z
     dec:	fc 01       	movw	r30, r24
     dee:	ed 51       	subi	r30, 0x1D	; 29
     df0:	ff 4f       	sbci	r31, 0xFF	; 255
     df2:	20 83       	st	Z, r18
     df4:	31 96       	adiw	r30, 0x01	; 1
     df6:	8c 01       	movw	r16, r24
     df8:	08 51       	subi	r16, 0x18	; 24
     dfa:	1f 4f       	sbci	r17, 0xFF	; 255
     dfc:	0f 2e       	mov	r0, r31
     dfe:	fa ef       	ldi	r31, 0xFA	; 250
     e00:	cf 2e       	mov	r12, r31
     e02:	d1 2c       	mov	r13, r1
     e04:	f0 2d       	mov	r31, r0
     e06:	59 96       	adiw	r26, 0x19	; 25
     e08:	e6 01       	movw	r28, r12
     e0a:	28 81       	ld	r18, Y
     e0c:	20 83       	st	Z, r18
     e0e:	2c 91       	ld	r18, X
     e10:	24 17       	cp	r18, r20
     e12:	48 f4       	brcc	.+18     	; 0xe26 <_ZN12CAN_Twizplay5storeEPhh+0x98>
     e14:	31 e0       	ldi	r19, 0x01	; 1
     e16:	32 0f       	add	r19, r18
     e18:	3c 93       	st	X, r19
     e1a:	50 81       	ld	r21, Z
     e1c:	7b 01       	movw	r14, r22
     e1e:	e2 0e       	add	r14, r18
     e20:	f1 1c       	adc	r15, r1
     e22:	e7 01       	movw	r28, r14
     e24:	58 83       	st	Y, r21
     e26:	31 96       	adiw	r30, 0x01	; 1
     e28:	e0 17       	cp	r30, r16
     e2a:	f1 07       	cpc	r31, r17
     e2c:	69 f7       	brne	.-38     	; 0xe08 <_ZN12CAN_Twizplay5storeEPhh+0x7a>
     e2e:	10 92 ee 00 	sts	0x00EE, r1
     e32:	20 ec       	ldi	r18, 0xC0	; 192
     e34:	20 93 ef 00 	sts	0x00EF, r18
     e38:	fc 01       	movw	r30, r24
     e3a:	e8 50       	subi	r30, 0x08	; 8
     e3c:	ff 4f       	sbci	r31, 0xFF	; 255
     e3e:	20 81       	ld	r18, Z
     e40:	2f 5f       	subi	r18, 0xFF	; 255
     e42:	20 83       	st	Z, r18
     e44:	43 c0       	rjmp	.+134    	; 0xecc <_ZN12CAN_Twizplay5storeEPhh+0x13e>
     e46:	fc 01       	movw	r30, r24
     e48:	e8 51       	subi	r30, 0x18	; 24
     e4a:	ff 4f       	sbci	r31, 0xFF	; 255
     e4c:	50 83       	st	Z, r21
     e4e:	31 96       	adiw	r30, 0x01	; 1
     e50:	8c 01       	movw	r16, r24
     e52:	00 51       	subi	r16, 0x10	; 16
     e54:	1f 4f       	sbci	r17, 0xFF	; 255
     e56:	0f 2e       	mov	r0, r31
     e58:	fa ef       	ldi	r31, 0xFA	; 250
     e5a:	cf 2e       	mov	r12, r31
     e5c:	d1 2c       	mov	r13, r1
     e5e:	f0 2d       	mov	r31, r0
     e60:	dc 01       	movw	r26, r24
     e62:	a5 50       	subi	r26, 0x05	; 5
     e64:	bf 4f       	sbci	r27, 0xFF	; 255
     e66:	e6 01       	movw	r28, r12
     e68:	28 81       	ld	r18, Y
     e6a:	20 83       	st	Z, r18
     e6c:	2c 91       	ld	r18, X
     e6e:	24 17       	cp	r18, r20
     e70:	48 f4       	brcc	.+18     	; 0xe84 <_ZN12CAN_Twizplay5storeEPhh+0xf6>
     e72:	31 e0       	ldi	r19, 0x01	; 1
     e74:	32 0f       	add	r19, r18
     e76:	3c 93       	st	X, r19
     e78:	50 81       	ld	r21, Z
     e7a:	7b 01       	movw	r14, r22
     e7c:	e2 0e       	add	r14, r18
     e7e:	f1 1c       	adc	r15, r1
     e80:	e7 01       	movw	r28, r14
     e82:	58 83       	st	Y, r21
     e84:	31 96       	adiw	r30, 0x01	; 1
     e86:	e0 17       	cp	r30, r16
     e88:	f1 07       	cpc	r31, r17
     e8a:	69 f7       	brne	.-38     	; 0xe66 <_ZN12CAN_Twizplay5storeEPhh+0xd8>
     e8c:	10 92 ee 00 	sts	0x00EE, r1
     e90:	20 ec       	ldi	r18, 0xC0	; 192
     e92:	20 93 ef 00 	sts	0x00EF, r18
     e96:	fc 01       	movw	r30, r24
     e98:	e8 50       	subi	r30, 0x08	; 8
     e9a:	ff 4f       	sbci	r31, 0xFF	; 255
     e9c:	20 81       	ld	r18, Z
     e9e:	2f 5f       	subi	r18, 0xFF	; 255
     ea0:	20 83       	st	Z, r18
     ea2:	14 c0       	rjmp	.+40     	; 0xecc <_ZN12CAN_Twizplay5storeEPhh+0x13e>
     ea4:	fc 01       	movw	r30, r24
     ea6:	e0 51       	subi	r30, 0x10	; 16
     ea8:	ff 4f       	sbci	r31, 0xFF	; 255
     eaa:	50 83       	st	Z, r21
     eac:	31 96       	adiw	r30, 0x01	; 1
     eae:	bc 01       	movw	r22, r24
     eb0:	68 50       	subi	r22, 0x08	; 8
     eb2:	7f 4f       	sbci	r23, 0xFF	; 255
     eb4:	aa ef       	ldi	r26, 0xFA	; 250
     eb6:	b0 e0       	ldi	r27, 0x00	; 0
     eb8:	2c 91       	ld	r18, X
     eba:	21 93       	st	Z+, r18
     ebc:	e6 17       	cp	r30, r22
     ebe:	f7 07       	cpc	r31, r23
     ec0:	d9 f7       	brne	.-10     	; 0xeb8 <_ZN12CAN_Twizplay5storeEPhh+0x12a>
     ec2:	10 92 ee 00 	sts	0x00EE, r1
     ec6:	20 ec       	ldi	r18, 0xC0	; 192
     ec8:	20 93 ef 00 	sts	0x00EF, r18
     ecc:	fc 01       	movw	r30, r24
     ece:	e5 50       	subi	r30, 0x05	; 5
     ed0:	ff 4f       	sbci	r31, 0xFF	; 255
     ed2:	20 81       	ld	r18, Z
     ed4:	24 13       	cpse	r18, r20
     ed6:	03 c0       	rjmp	.+6      	; 0xede <_ZN12CAN_Twizplay5storeEPhh+0x150>
     ed8:	31 96       	adiw	r30, 0x01	; 1
     eda:	8f ef       	ldi	r24, 0xFF	; 255
     edc:	80 83       	st	Z, r24
     ede:	df 91       	pop	r29
     ee0:	cf 91       	pop	r28
     ee2:	1f 91       	pop	r17
     ee4:	0f 91       	pop	r16
     ee6:	ff 90       	pop	r15
     ee8:	ef 90       	pop	r14
     eea:	df 90       	pop	r13
     eec:	cf 90       	pop	r12
     eee:	08 95       	ret

00000ef0 <_ZN12CAN_Twizplay6Can_rxEv>:
     ef0:	2f 92       	push	r2
     ef2:	3f 92       	push	r3
     ef4:	4f 92       	push	r4
     ef6:	5f 92       	push	r5
     ef8:	6f 92       	push	r6
     efa:	7f 92       	push	r7
     efc:	8f 92       	push	r8
     efe:	9f 92       	push	r9
     f00:	af 92       	push	r10
     f02:	bf 92       	push	r11
     f04:	cf 92       	push	r12
     f06:	df 92       	push	r13
     f08:	ef 92       	push	r14
     f0a:	ff 92       	push	r15
     f0c:	0f 93       	push	r16
     f0e:	1f 93       	push	r17
     f10:	cf 93       	push	r28
     f12:	df 93       	push	r29
     f14:	00 d0       	rcall	.+0      	; 0xf16 <_ZN12CAN_Twizplay6Can_rxEv+0x26>
     f16:	00 d0       	rcall	.+0      	; 0xf18 <_ZN12CAN_Twizplay6Can_rxEv+0x28>
     f18:	00 d0       	rcall	.+0      	; 0xf1a <_ZN12CAN_Twizplay6Can_rxEv+0x2a>
     f1a:	cd b7       	in	r28, 0x3d	; 61
     f1c:	de b7       	in	r29, 0x3e	; 62
     f1e:	4c 01       	movw	r8, r24
     f20:	fc 01       	movw	r30, r24
     f22:	eb 59       	subi	r30, 0x9B	; 155
     f24:	fe 4f       	sbci	r31, 0xFE	; 254
     f26:	80 81       	ld	r24, Z
     f28:	8f 5f       	subi	r24, 0xFF	; 255
     f2a:	80 83       	st	Z, r24
     f2c:	40 e0       	ldi	r20, 0x00	; 0
     f2e:	50 e0       	ldi	r21, 0x00	; 0
     f30:	90 e0       	ldi	r25, 0x00	; 0
     f32:	0f 2e       	mov	r0, r31
     f34:	fd ee       	ldi	r31, 0xED	; 237
     f36:	ef 2e       	mov	r14, r31
     f38:	f1 2c       	mov	r15, r1
     f3a:	f0 2d       	mov	r31, r0
     f3c:	6e ee       	ldi	r22, 0xEE	; 238
     f3e:	70 e0       	ldi	r23, 0x00	; 0
     f40:	6f 01       	movw	r12, r30
     f42:	0f ee       	ldi	r16, 0xEF	; 239
     f44:	10 e0       	ldi	r17, 0x00	; 0
     f46:	0f 2e       	mov	r0, r31
     f48:	f0 ec       	ldi	r31, 0xC0	; 192
     f4a:	bf 2e       	mov	r11, r31
     f4c:	f0 2d       	mov	r31, r0
     f4e:	aa ef       	ldi	r26, 0xFA	; 250
     f50:	b0 e0       	ldi	r27, 0x00	; 0
     f52:	89 2f       	mov	r24, r25
     f54:	82 95       	swap	r24
     f56:	80 7f       	andi	r24, 0xF0	; 240
     f58:	f7 01       	movw	r30, r14
     f5a:	80 83       	st	Z, r24
     f5c:	fb 01       	movw	r30, r22
     f5e:	80 81       	ld	r24, Z
     f60:	85 ff       	sbrs	r24, 5
     f62:	1c c0       	rjmp	.+56     	; 0xf9c <_ZN12CAN_Twizplay6Can_rxEv+0xac>
     f64:	f6 01       	movw	r30, r12
     f66:	10 82       	st	Z, r1
     f68:	f8 01       	movw	r30, r16
     f6a:	20 81       	ld	r18, Z
     f6c:	2f 70       	andi	r18, 0x0F	; 15
     f6e:	91 f0       	breq	.+36     	; 0xf94 <_ZN12CAN_Twizplay6Can_rxEv+0xa4>
     f70:	fa 01       	movw	r30, r20
     f72:	e3 50       	subi	r30, 0x03	; 3
     f74:	ff 4f       	sbci	r31, 0xFF	; 255
     f76:	e8 0d       	add	r30, r8
     f78:	f9 1d       	adc	r31, r9
     f7a:	21 50       	subi	r18, 0x01	; 1
     f7c:	30 e0       	ldi	r19, 0x00	; 0
     f7e:	22 50       	subi	r18, 0x02	; 2
     f80:	3f 4f       	sbci	r19, 0xFF	; 255
     f82:	24 0f       	add	r18, r20
     f84:	35 1f       	adc	r19, r21
     f86:	28 0d       	add	r18, r8
     f88:	39 1d       	adc	r19, r9
     f8a:	8c 91       	ld	r24, X
     f8c:	81 93       	st	Z+, r24
     f8e:	e2 17       	cp	r30, r18
     f90:	f3 07       	cpc	r31, r19
     f92:	d9 f7       	brne	.-10     	; 0xf8a <_ZN12CAN_Twizplay6Can_rxEv+0x9a>
     f94:	fb 01       	movw	r30, r22
     f96:	10 82       	st	Z, r1
     f98:	f8 01       	movw	r30, r16
     f9a:	b0 82       	st	Z, r11
     f9c:	9f 5f       	subi	r25, 0xFF	; 255
     f9e:	48 5f       	subi	r20, 0xF8	; 248
     fa0:	5f 4f       	sbci	r21, 0xFF	; 255
     fa2:	98 30       	cpi	r25, 0x08	; 8
     fa4:	b1 f6       	brne	.-84     	; 0xf52 <_ZN12CAN_Twizplay6Can_rxEv+0x62>
     fa6:	e1 2c       	mov	r14, r1
     fa8:	f1 2c       	mov	r15, r1
     faa:	00 e0       	ldi	r16, 0x00	; 0
     fac:	10 e0       	ldi	r17, 0x00	; 0
     fae:	31 2c       	mov	r3, r1
     fb0:	21 2c       	mov	r2, r1
     fb2:	37 01       	movw	r6, r14
     fb4:	24 01       	movw	r4, r8
     fb6:	9e 82       	std	Y+6, r9	; 0x06
     fb8:	8d 82       	std	Y+5, r8	; 0x05
     fba:	d8 01       	movw	r26, r16
     fbc:	a0 51       	subi	r26, 0x10	; 16
     fbe:	bf 4f       	sbci	r27, 0xFF	; 255
     fc0:	fd 01       	movw	r30, r26
     fc2:	84 91       	lpm	r24, Z
     fc4:	98 01       	movw	r18, r16
     fc6:	28 51       	subi	r18, 0x18	; 24
     fc8:	3f 4f       	sbci	r19, 0xFF	; 255
     fca:	79 01       	movw	r14, r18
     fcc:	f9 01       	movw	r30, r18
     fce:	74 91       	lpm	r23, Z
     fd0:	76 95       	lsr	r23
     fd2:	76 95       	lsr	r23
     fd4:	76 95       	lsr	r23
     fd6:	88 0f       	add	r24, r24
     fd8:	88 0f       	add	r24, r24
     fda:	88 0f       	add	r24, r24
     fdc:	78 0f       	add	r23, r24
     fde:	27 2f       	mov	r18, r23
     fe0:	30 e0       	ldi	r19, 0x00	; 0
     fe2:	fd 01       	movw	r30, r26
     fe4:	84 91       	lpm	r24, Z
     fe6:	a8 01       	movw	r20, r16
     fe8:	40 52       	subi	r20, 0x20	; 32
     fea:	5f 4f       	sbci	r21, 0xFF	; 255
     fec:	fa 01       	movw	r30, r20
     fee:	64 91       	lpm	r22, Z
     ff0:	90 e0       	ldi	r25, 0x00	; 0
     ff2:	88 0f       	add	r24, r24
     ff4:	99 1f       	adc	r25, r25
     ff6:	88 0f       	add	r24, r24
     ff8:	99 1f       	adc	r25, r25
     ffa:	88 0f       	add	r24, r24
     ffc:	99 1f       	adc	r25, r25
     ffe:	66 95       	lsr	r22
    1000:	66 95       	lsr	r22
    1002:	66 95       	lsr	r22
    1004:	86 0f       	add	r24, r22
    1006:	91 1d       	adc	r25, r1
    1008:	01 96       	adiw	r24, 0x01	; 1
    100a:	28 17       	cp	r18, r24
    100c:	39 07       	cpc	r19, r25
    100e:	74 f5       	brge	.+92     	; 0x106c <_ZN12CAN_Twizplay6Can_rxEv+0x17c>
    1010:	83 2c       	mov	r8, r3
    1012:	92 2c       	mov	r9, r2
    1014:	a1 2c       	mov	r10, r1
    1016:	b1 2c       	mov	r11, r1
    1018:	cd 80       	ldd	r12, Y+5	; 0x05
    101a:	de 80       	ldd	r13, Y+6	; 0x06
    101c:	ba 2c       	mov	r11, r10
    101e:	a9 2c       	mov	r10, r9
    1020:	98 2c       	mov	r9, r8
    1022:	88 24       	eor	r8, r8
    1024:	2c 0d       	add	r18, r12
    1026:	3d 1d       	adc	r19, r13
    1028:	f9 01       	movw	r30, r18
    102a:	e3 50       	subi	r30, 0x03	; 3
    102c:	ff 4f       	sbci	r31, 0xFF	; 255
    102e:	80 81       	ld	r24, Z
    1030:	88 0e       	add	r8, r24
    1032:	91 1c       	adc	r9, r1
    1034:	a1 1c       	adc	r10, r1
    1036:	b1 1c       	adc	r11, r1
    1038:	7f 5f       	subi	r23, 0xFF	; 255
    103a:	27 2f       	mov	r18, r23
    103c:	30 e0       	ldi	r19, 0x00	; 0
    103e:	fd 01       	movw	r30, r26
    1040:	84 91       	lpm	r24, Z
    1042:	fa 01       	movw	r30, r20
    1044:	64 91       	lpm	r22, Z
    1046:	90 e0       	ldi	r25, 0x00	; 0
    1048:	88 0f       	add	r24, r24
    104a:	99 1f       	adc	r25, r25
    104c:	88 0f       	add	r24, r24
    104e:	99 1f       	adc	r25, r25
    1050:	88 0f       	add	r24, r24
    1052:	99 1f       	adc	r25, r25
    1054:	66 95       	lsr	r22
    1056:	66 95       	lsr	r22
    1058:	66 95       	lsr	r22
    105a:	86 0f       	add	r24, r22
    105c:	91 1d       	adc	r25, r1
    105e:	01 96       	adiw	r24, 0x01	; 1
    1060:	28 17       	cp	r18, r24
    1062:	39 07       	cpc	r19, r25
    1064:	dc f2       	brlt	.-74     	; 0x101c <_ZN12CAN_Twizplay6Can_rxEv+0x12c>
    1066:	de 82       	std	Y+6, r13	; 0x06
    1068:	cd 82       	std	Y+5, r12	; 0x05
    106a:	04 c0       	rjmp	.+8      	; 0x1074 <_ZN12CAN_Twizplay6Can_rxEv+0x184>
    106c:	83 2c       	mov	r8, r3
    106e:	92 2c       	mov	r9, r2
    1070:	a1 2c       	mov	r10, r1
    1072:	b1 2c       	mov	r11, r1
    1074:	fa 01       	movw	r30, r20
    1076:	84 91       	lpm	r24, Z
    1078:	90 e0       	ldi	r25, 0x00	; 0
    107a:	80 95       	com	r24
    107c:	90 95       	com	r25
    107e:	9c 01       	movw	r18, r24
    1080:	27 70       	andi	r18, 0x07	; 7
    1082:	33 27       	eor	r19, r19
    1084:	c5 01       	movw	r24, r10
    1086:	b4 01       	movw	r22, r8
    1088:	04 c0       	rjmp	.+8      	; 0x1092 <_ZN12CAN_Twizplay6Can_rxEv+0x1a2>
    108a:	96 95       	lsr	r25
    108c:	87 95       	ror	r24
    108e:	77 95       	ror	r23
    1090:	67 95       	ror	r22
    1092:	2a 95       	dec	r18
    1094:	d2 f7       	brpl	.-12     	; 0x108a <_ZN12CAN_Twizplay6Can_rxEv+0x19a>
    1096:	69 83       	std	Y+1, r22	; 0x01
    1098:	7a 83       	std	Y+2, r23	; 0x02
    109a:	8b 83       	std	Y+3, r24	; 0x03
    109c:	9c 83       	std	Y+4, r25	; 0x04
    109e:	24 91       	lpm	r18, Z
    10a0:	f7 01       	movw	r30, r14
    10a2:	44 91       	lpm	r20, Z
    10a4:	f3 01       	movw	r30, r6
    10a6:	e0 54       	subi	r30, 0x40	; 64
    10a8:	ff 4f       	sbci	r31, 0xFF	; 255
    10aa:	c5 90       	lpm	r12, Z+
    10ac:	d5 90       	lpm	r13, Z+
    10ae:	e5 90       	lpm	r14, Z+
    10b0:	f4 90       	lpm	r15, Z
    10b2:	f3 01       	movw	r30, r6
    10b4:	e0 56       	subi	r30, 0x60	; 96
    10b6:	ff 4f       	sbci	r31, 0xFF	; 255
    10b8:	85 90       	lpm	r8, Z+
    10ba:	95 90       	lpm	r9, Z+
    10bc:	a5 90       	lpm	r10, Z+
    10be:	b4 90       	lpm	r11, Z
    10c0:	30 e0       	ldi	r19, 0x00	; 0
    10c2:	24 1b       	sub	r18, r20
    10c4:	31 09       	sbc	r19, r1
    10c6:	2f 5f       	subi	r18, 0xFF	; 255
    10c8:	3f 4f       	sbci	r19, 0xFF	; 255
    10ca:	41 e0       	ldi	r20, 0x01	; 1
    10cc:	50 e0       	ldi	r21, 0x00	; 0
    10ce:	60 e0       	ldi	r22, 0x00	; 0
    10d0:	70 e0       	ldi	r23, 0x00	; 0
    10d2:	04 c0       	rjmp	.+8      	; 0x10dc <_ZN12CAN_Twizplay6Can_rxEv+0x1ec>
    10d4:	44 0f       	add	r20, r20
    10d6:	55 1f       	adc	r21, r21
    10d8:	66 1f       	adc	r22, r22
    10da:	77 1f       	adc	r23, r23
    10dc:	2a 95       	dec	r18
    10de:	d2 f7       	brpl	.-12     	; 0x10d4 <_ZN12CAN_Twizplay6Can_rxEv+0x1e4>
    10e0:	cb 01       	movw	r24, r22
    10e2:	ba 01       	movw	r22, r20
    10e4:	61 50       	subi	r22, 0x01	; 1
    10e6:	71 09       	sbc	r23, r1
    10e8:	81 09       	sbc	r24, r1
    10ea:	91 09       	sbc	r25, r1
    10ec:	29 81       	ldd	r18, Y+1	; 0x01
    10ee:	3a 81       	ldd	r19, Y+2	; 0x02
    10f0:	4b 81       	ldd	r20, Y+3	; 0x03
    10f2:	5c 81       	ldd	r21, Y+4	; 0x04
    10f4:	62 23       	and	r22, r18
    10f6:	73 23       	and	r23, r19
    10f8:	84 23       	and	r24, r20
    10fa:	95 23       	and	r25, r21
    10fc:	0e 94 86 11 	call	0x230c	; 0x230c <__floatunsisf>
    1100:	a7 01       	movw	r20, r14
    1102:	96 01       	movw	r18, r12
    1104:	0e 94 3c 12 	call	0x2478	; 0x2478 <__mulsf3>
    1108:	a5 01       	movw	r20, r10
    110a:	94 01       	movw	r18, r8
    110c:	0e 94 b6 10 	call	0x216c	; 0x216c <__addsf3>
    1110:	d2 01       	movw	r26, r4
    1112:	6d 93       	st	X+, r22
    1114:	7d 93       	st	X+, r23
    1116:	8d 93       	st	X+, r24
    1118:	9d 93       	st	X+, r25
    111a:	2d 01       	movw	r4, r26
    111c:	0f 5f       	subi	r16, 0xFF	; 255
    111e:	1f 4f       	sbci	r17, 0xFF	; 255
    1120:	b4 e0       	ldi	r27, 0x04	; 4
    1122:	6b 0e       	add	r6, r27
    1124:	71 1c       	adc	r7, r1
    1126:	08 30       	cpi	r16, 0x08	; 8
    1128:	11 05       	cpc	r17, r1
    112a:	09 f0       	breq	.+2      	; 0x112e <__stack+0x2f>
    112c:	46 cf       	rjmp	.-372    	; 0xfba <_ZN12CAN_Twizplay6Can_rxEv+0xca>
    112e:	26 96       	adiw	r28, 0x06	; 6
    1130:	0f b6       	in	r0, 0x3f	; 63
    1132:	f8 94       	cli
    1134:	de bf       	out	0x3e, r29	; 62
    1136:	0f be       	out	0x3f, r0	; 63
    1138:	cd bf       	out	0x3d, r28	; 61
    113a:	df 91       	pop	r29
    113c:	cf 91       	pop	r28
    113e:	1f 91       	pop	r17
    1140:	0f 91       	pop	r16
    1142:	ff 90       	pop	r15
    1144:	ef 90       	pop	r14
    1146:	df 90       	pop	r13
    1148:	cf 90       	pop	r12
    114a:	bf 90       	pop	r11
    114c:	af 90       	pop	r10
    114e:	9f 90       	pop	r9
    1150:	8f 90       	pop	r8
    1152:	7f 90       	pop	r7
    1154:	6f 90       	pop	r6
    1156:	5f 90       	pop	r5
    1158:	4f 90       	pop	r4
    115a:	3f 90       	pop	r3
    115c:	2f 90       	pop	r2
    115e:	08 95       	ret

00001160 <_ZN9screenmem4sendER9dog_7565R>:
    1160:	df 92       	push	r13
    1162:	ef 92       	push	r14
    1164:	ff 92       	push	r15
    1166:	0f 93       	push	r16
    1168:	1f 93       	push	r17
    116a:	cf 93       	push	r28
    116c:	df 93       	push	r29
    116e:	7b 01       	movw	r14, r22
    1170:	ec 01       	movw	r28, r24
    1172:	d1 2c       	mov	r13, r1
    1174:	4d 2d       	mov	r20, r13
    1176:	60 e0       	ldi	r22, 0x00	; 0
    1178:	c7 01       	movw	r24, r14
    117a:	fd db       	rcall	.-2054   	; 0x976 <_ZN9dog_7565R8positionEhh>
    117c:	8e 01       	movw	r16, r28
    117e:	00 58       	subi	r16, 0x80	; 128
    1180:	1f 4f       	sbci	r17, 0xFF	; 255
    1182:	69 91       	ld	r22, Y+
    1184:	c7 01       	movw	r24, r14
    1186:	10 dc       	rcall	.-2016   	; 0x9a8 <_ZN9dog_7565R4dataEh>
    1188:	c0 17       	cp	r28, r16
    118a:	d1 07       	cpc	r29, r17
    118c:	d1 f7       	brne	.-12     	; 0x1182 <_ZN9screenmem4sendER9dog_7565R+0x22>
    118e:	d3 94       	inc	r13
    1190:	e8 01       	movw	r28, r16
    1192:	88 e0       	ldi	r24, 0x08	; 8
    1194:	d8 12       	cpse	r13, r24
    1196:	ee cf       	rjmp	.-36     	; 0x1174 <_ZN9screenmem4sendER9dog_7565R+0x14>
    1198:	df 91       	pop	r29
    119a:	cf 91       	pop	r28
    119c:	1f 91       	pop	r17
    119e:	0f 91       	pop	r16
    11a0:	ff 90       	pop	r15
    11a2:	ef 90       	pop	r14
    11a4:	df 90       	pop	r13
    11a6:	08 95       	ret

000011a8 <_ZN9screenmem12draw_patternEhhhh>:
    11a8:	cf 92       	push	r12
    11aa:	df 92       	push	r13
    11ac:	ef 92       	push	r14
    11ae:	ff 92       	push	r15
    11b0:	0f 93       	push	r16
    11b2:	1f 93       	push	r17
    11b4:	cf 93       	push	r28
    11b6:	df 93       	push	r29
    11b8:	fc 01       	movw	r30, r24
    11ba:	92 2f       	mov	r25, r18
    11bc:	29 30       	cpi	r18, 0x09	; 9
    11be:	08 f0       	brcs	.+2      	; 0x11c2 <_ZN9screenmem12draw_patternEhhhh+0x1a>
    11c0:	98 e0       	ldi	r25, 0x08	; 8
    11c2:	a9 2f       	mov	r26, r25
    11c4:	b0 e0       	ldi	r27, 0x00	; 0
    11c6:	9d 01       	movw	r18, r26
    11c8:	24 0f       	add	r18, r20
    11ca:	31 1d       	adc	r19, r1
    11cc:	20 34       	cpi	r18, 0x40	; 64
    11ce:	31 05       	cpc	r19, r1
    11d0:	14 f0       	brlt	.+4      	; 0x11d6 <_ZN9screenmem12draw_patternEhhhh+0x2e>
    11d2:	40 e4       	ldi	r20, 0x40	; 64
    11d4:	49 1b       	sub	r20, r25
    11d6:	66 23       	and	r22, r22
    11d8:	0c f4       	brge	.+2      	; 0x11dc <_ZN9screenmem12draw_patternEhhhh+0x34>
    11da:	6f e7       	ldi	r22, 0x7F	; 127
    11dc:	84 2f       	mov	r24, r20
    11de:	86 95       	lsr	r24
    11e0:	86 95       	lsr	r24
    11e2:	86 95       	lsr	r24
    11e4:	70 e0       	ldi	r23, 0x00	; 0
    11e6:	90 e8       	ldi	r25, 0x80	; 128
    11e8:	89 9f       	mul	r24, r25
    11ea:	60 0d       	add	r22, r0
    11ec:	71 1d       	adc	r23, r1
    11ee:	11 24       	eor	r1, r1
    11f0:	21 e0       	ldi	r18, 0x01	; 1
    11f2:	30 e0       	ldi	r19, 0x00	; 0
    11f4:	0a 2e       	mov	r0, r26
    11f6:	02 c0       	rjmp	.+4      	; 0x11fc <_ZN9screenmem12draw_patternEhhhh+0x54>
    11f8:	22 0f       	add	r18, r18
    11fa:	33 1f       	adc	r19, r19
    11fc:	0a 94       	dec	r0
    11fe:	e2 f7       	brpl	.-8      	; 0x11f8 <_ZN9screenmem12draw_patternEhhhh+0x50>
    1200:	21 50       	subi	r18, 0x01	; 1
    1202:	82 2f       	mov	r24, r18
    1204:	90 e0       	ldi	r25, 0x00	; 0
    1206:	47 70       	andi	r20, 0x07	; 7
    1208:	c4 2e       	mov	r12, r20
    120a:	d1 2c       	mov	r13, r1
    120c:	20 23       	and	r18, r16
    120e:	30 e0       	ldi	r19, 0x00	; 0
    1210:	7f 01       	movw	r14, r30
    1212:	e6 0e       	add	r14, r22
    1214:	f7 1e       	adc	r15, r23
    1216:	8c 01       	movw	r16, r24
    1218:	04 2e       	mov	r0, r20
    121a:	02 c0       	rjmp	.+4      	; 0x1220 <_ZN9screenmem12draw_patternEhhhh+0x78>
    121c:	00 0f       	add	r16, r16
    121e:	11 1f       	adc	r17, r17
    1220:	0a 94       	dec	r0
    1222:	e2 f7       	brpl	.-8      	; 0x121c <_ZN9screenmem12draw_patternEhhhh+0x74>
    1224:	10 2f       	mov	r17, r16
    1226:	10 95       	com	r17
    1228:	e7 01       	movw	r28, r14
    122a:	58 81       	ld	r21, Y
    122c:	15 23       	and	r17, r21
    122e:	e9 01       	movw	r28, r18
    1230:	02 c0       	rjmp	.+4      	; 0x1236 <_ZN9screenmem12draw_patternEhhhh+0x8e>
    1232:	cc 0f       	add	r28, r28
    1234:	dd 1f       	adc	r29, r29
    1236:	4a 95       	dec	r20
    1238:	e2 f7       	brpl	.-8      	; 0x1232 <_ZN9screenmem12draw_patternEhhhh+0x8a>
    123a:	ae 01       	movw	r20, r28
    123c:	41 2b       	or	r20, r17
    123e:	e7 01       	movw	r28, r14
    1240:	48 83       	st	Y, r20
    1242:	ad 01       	movw	r20, r26
    1244:	4c 0d       	add	r20, r12
    1246:	5d 1d       	adc	r21, r13
    1248:	49 30       	cpi	r20, 0x09	; 9
    124a:	51 05       	cpc	r21, r1
    124c:	c4 f0       	brlt	.+48     	; 0x127e <_ZN9screenmem12draw_patternEhhhh+0xd6>
    124e:	60 58       	subi	r22, 0x80	; 128
    1250:	7f 4f       	sbci	r23, 0xFF	; 255
    1252:	48 e0       	ldi	r20, 0x08	; 8
    1254:	50 e0       	ldi	r21, 0x00	; 0
    1256:	4c 19       	sub	r20, r12
    1258:	5d 09       	sbc	r21, r13
    125a:	e6 0f       	add	r30, r22
    125c:	f7 1f       	adc	r31, r23
    125e:	04 2e       	mov	r0, r20
    1260:	02 c0       	rjmp	.+4      	; 0x1266 <_ZN9screenmem12draw_patternEhhhh+0xbe>
    1262:	95 95       	asr	r25
    1264:	87 95       	ror	r24
    1266:	0a 94       	dec	r0
    1268:	e2 f7       	brpl	.-8      	; 0x1262 <_ZN9screenmem12draw_patternEhhhh+0xba>
    126a:	80 95       	com	r24
    126c:	00 81       	ld	r16, Z
    126e:	80 23       	and	r24, r16
    1270:	02 c0       	rjmp	.+4      	; 0x1276 <_ZN9screenmem12draw_patternEhhhh+0xce>
    1272:	35 95       	asr	r19
    1274:	27 95       	ror	r18
    1276:	4a 95       	dec	r20
    1278:	e2 f7       	brpl	.-8      	; 0x1272 <_ZN9screenmem12draw_patternEhhhh+0xca>
    127a:	28 2b       	or	r18, r24
    127c:	20 83       	st	Z, r18
    127e:	df 91       	pop	r29
    1280:	cf 91       	pop	r28
    1282:	1f 91       	pop	r17
    1284:	0f 91       	pop	r16
    1286:	ff 90       	pop	r15
    1288:	ef 90       	pop	r14
    128a:	df 90       	pop	r13
    128c:	cf 90       	pop	r12
    128e:	08 95       	ret

00001290 <_ZN9screenmem6stringEhhPKhPKc>:
    1290:	2f 92       	push	r2
    1292:	3f 92       	push	r3
    1294:	4f 92       	push	r4
    1296:	5f 92       	push	r5
    1298:	6f 92       	push	r6
    129a:	7f 92       	push	r7
    129c:	8f 92       	push	r8
    129e:	9f 92       	push	r9
    12a0:	af 92       	push	r10
    12a2:	bf 92       	push	r11
    12a4:	cf 92       	push	r12
    12a6:	df 92       	push	r13
    12a8:	ef 92       	push	r14
    12aa:	ff 92       	push	r15
    12ac:	0f 93       	push	r16
    12ae:	1f 93       	push	r17
    12b0:	cf 93       	push	r28
    12b2:	df 93       	push	r29
    12b4:	cd b7       	in	r28, 0x3d	; 61
    12b6:	de b7       	in	r29, 0x3e	; 62
    12b8:	60 97       	sbiw	r28, 0x10	; 16
    12ba:	0f b6       	in	r0, 0x3f	; 63
    12bc:	f8 94       	cli
    12be:	de bf       	out	0x3e, r29	; 62
    12c0:	0f be       	out	0x3f, r0	; 63
    12c2:	cd bf       	out	0x3d, r28	; 61
    12c4:	f9 01       	movw	r30, r18
    12c6:	32 96       	adiw	r30, 0x02	; 2
    12c8:	54 90       	lpm	r5, Z
    12ca:	31 96       	adiw	r30, 0x01	; 1
    12cc:	44 90       	lpm	r4, Z
    12ce:	31 96       	adiw	r30, 0x01	; 1
    12d0:	54 91       	lpm	r21, Z
    12d2:	31 96       	adiw	r30, 0x01	; 1
    12d4:	64 90       	lpm	r6, Z
    12d6:	32 96       	adiw	r30, 0x02	; 2
    12d8:	74 91       	lpm	r23, Z
    12da:	e4 2f       	mov	r30, r20
    12dc:	f0 e0       	ldi	r31, 0x00	; 0
    12de:	e6 0d       	add	r30, r6
    12e0:	f1 1d       	adc	r31, r1
    12e2:	e1 34       	cpi	r30, 0x41	; 65
    12e4:	f1 05       	cpc	r31, r1
    12e6:	1c f0       	brlt	.+6      	; 0x12ee <_ZN9screenmem6stringEhhPKhPKc+0x5e>
    12e8:	e0 e4       	ldi	r30, 0x40	; 64
    12ea:	6e 2e       	mov	r6, r30
    12ec:	64 1a       	sub	r6, r20
    12ee:	e6 2d       	mov	r30, r6
    12f0:	f0 e0       	ldi	r31, 0x00	; 0
    12f2:	37 96       	adiw	r30, 0x07	; 7
    12f4:	df 01       	movw	r26, r30
    12f6:	0a f4       	brpl	.+2      	; 0x12fa <_ZN9screenmem6stringEhhPKhPKc+0x6a>
    12f8:	17 96       	adiw	r26, 0x07	; 7
    12fa:	7d 01       	movw	r14, r26
    12fc:	f5 94       	asr	r15
    12fe:	e7 94       	ror	r14
    1300:	f5 94       	asr	r15
    1302:	e7 94       	ror	r14
    1304:	f5 94       	asr	r15
    1306:	e7 94       	ror	r14
    1308:	fb 86       	std	Y+11, r15	; 0x0b
    130a:	ea 86       	std	Y+10, r14	; 0x0a
    130c:	1e 14       	cp	r1, r14
    130e:	1f 04       	cpc	r1, r15
    1310:	0c f4       	brge	.+2      	; 0x1314 <_ZN9screenmem6stringEhhPKhPKc+0x84>
    1312:	52 c0       	rjmp	.+164    	; 0x13b8 <_ZN9screenmem6stringEhhPKhPKc+0x128>
    1314:	83 c0       	rjmp	.+262    	; 0x141c <_ZN9screenmem6stringEhhPKhPKc+0x18c>
    1316:	85 15       	cp	r24, r5
    1318:	08 f4       	brcc	.+2      	; 0x131c <_ZN9screenmem6stringEhhPKhPKc+0x8c>
    131a:	3c c0       	rjmp	.+120    	; 0x1394 <_ZN9screenmem6stringEhhPKhPKc+0x104>
    131c:	48 16       	cp	r4, r24
    131e:	08 f4       	brcc	.+2      	; 0x1322 <_ZN9screenmem6stringEhhPKhPKc+0x92>
    1320:	39 c0       	rjmp	.+114    	; 0x1394 <_ZN9screenmem6stringEhhPKhPKc+0x104>
    1322:	90 e0       	ldi	r25, 0x00	; 0
    1324:	2d 81       	ldd	r18, Y+5	; 0x05
    1326:	3e 81       	ldd	r19, Y+6	; 0x06
    1328:	82 1b       	sub	r24, r18
    132a:	93 0b       	sbc	r25, r19
    132c:	ef 81       	ldd	r30, Y+7	; 0x07
    132e:	f8 85       	ldd	r31, Y+8	; 0x08
    1330:	8e 9f       	mul	r24, r30
    1332:	a0 01       	movw	r20, r0
    1334:	8f 9f       	mul	r24, r31
    1336:	50 0d       	add	r21, r0
    1338:	9e 9f       	mul	r25, r30
    133a:	50 0d       	add	r21, r0
    133c:	11 24       	eor	r1, r1
    133e:	9a 01       	movw	r18, r20
    1340:	28 0d       	add	r18, r8
    1342:	39 1d       	adc	r19, r9
    1344:	38 8b       	std	Y+16, r19	; 0x10
    1346:	2f 87       	std	Y+15, r18	; 0x0f
    1348:	8a 81       	ldd	r24, Y+2	; 0x02
    134a:	9b 81       	ldd	r25, Y+3	; 0x03
    134c:	86 0f       	add	r24, r22
    134e:	91 1d       	adc	r25, r1
    1350:	81 38       	cpi	r24, 0x81	; 129
    1352:	91 05       	cpc	r25, r1
    1354:	2c f0       	brlt	.+10     	; 0x1360 <_ZN9screenmem6stringEhhPKhPKc+0xd0>
    1356:	68 94       	set
    1358:	cc 24       	eor	r12, r12
    135a:	c7 f8       	bld	r12, 7
    135c:	c6 1a       	sub	r12, r22
    135e:	01 c0       	rjmp	.+2      	; 0x1362 <_ZN9screenmem6stringEhhPKhPKc+0xd2>
    1360:	c9 84       	ldd	r12, Y+9	; 0x09
    1362:	cc 20       	and	r12, r12
    1364:	b9 f0       	breq	.+46     	; 0x1394 <_ZN9screenmem6stringEhhPKhPKc+0x104>
    1366:	10 e0       	ldi	r17, 0x00	; 0
    1368:	c9 82       	std	Y+1, r12	; 0x01
    136a:	8f 85       	ldd	r24, Y+15	; 0x0f
    136c:	98 89       	ldd	r25, Y+16	; 0x10
    136e:	81 0f       	add	r24, r17
    1370:	91 1d       	adc	r25, r1
    1372:	8e 0d       	add	r24, r14
    1374:	9f 1d       	adc	r25, r15
    1376:	fc 01       	movw	r30, r24
    1378:	24 91       	lpm	r18, Z
    137a:	21 11       	cpse	r18, r1
    137c:	44 c0       	rjmp	.+136    	; 0x1406 <_ZN9screenmem6stringEhhPKhPKc+0x176>
    137e:	f7 01       	movw	r30, r14
    1380:	24 91       	lpm	r18, Z
    1382:	24 35       	cpi	r18, 0x54	; 84
    1384:	09 f0       	breq	.+2      	; 0x1388 <_ZN9screenmem6stringEhhPKhPKc+0xf8>
    1386:	3f c0       	rjmp	.+126    	; 0x1406 <_ZN9screenmem6stringEhhPKhPKc+0x176>
    1388:	12 30       	cpi	r17, 0x02	; 2
    138a:	e8 f1       	brcs	.+122    	; 0x1406 <_ZN9screenmem6stringEhhPKhPKc+0x176>
    138c:	19 81       	ldd	r17, Y+1	; 0x01
    138e:	1f 5f       	subi	r17, 0xFF	; 255
    1390:	1c 15       	cp	r17, r12
    1392:	58 f3       	brcs	.-42     	; 0x136a <_ZN9screenmem6stringEhhPKhPKc+0xda>
    1394:	f5 01       	movw	r30, r10
    1396:	81 91       	ld	r24, Z+
    1398:	5f 01       	movw	r10, r30
    139a:	81 11       	cpse	r24, r1
    139c:	bc cf       	rjmp	.-136    	; 0x1316 <_ZN9screenmem6stringEhhPKhPKc+0x86>
    139e:	fc 81       	ldd	r31, Y+4	; 0x04
    13a0:	ff 5f       	subi	r31, 0xFF	; 255
    13a2:	fc 83       	std	Y+4, r31	; 0x04
    13a4:	8f 2f       	mov	r24, r31
    13a6:	90 e0       	ldi	r25, 0x00	; 0
    13a8:	28 e0       	ldi	r18, 0x08	; 8
    13aa:	72 0e       	add	r7, r18
    13ac:	4a 85       	ldd	r20, Y+10	; 0x0a
    13ae:	5b 85       	ldd	r21, Y+11	; 0x0b
    13b0:	84 17       	cp	r24, r20
    13b2:	95 07       	cpc	r25, r21
    13b4:	bc f0       	brlt	.+46     	; 0x13e4 <_ZN9screenmem6stringEhhPKhPKc+0x154>
    13b6:	32 c0       	rjmp	.+100    	; 0x141c <_ZN9screenmem6stringEhhPKhPKc+0x18c>
    13b8:	79 01       	movw	r14, r18
    13ba:	1c 01       	movw	r2, r24
    13bc:	74 2e       	mov	r7, r20
    13be:	80 e0       	ldi	r24, 0x00	; 0
    13c0:	90 e0       	ldi	r25, 0x00	; 0
    13c2:	1c 82       	std	Y+4, r1	; 0x04
    13c4:	e5 2f       	mov	r30, r21
    13c6:	f0 e0       	ldi	r31, 0x00	; 0
    13c8:	fb 83       	std	Y+3, r31	; 0x03
    13ca:	ea 83       	std	Y+2, r30	; 0x02
    13cc:	0d 87       	std	Y+13, r16	; 0x0d
    13ce:	1e 87       	std	Y+14, r17	; 0x0e
    13d0:	6c 87       	std	Y+12, r22	; 0x0c
    13d2:	25 2d       	mov	r18, r5
    13d4:	30 e0       	ldi	r19, 0x00	; 0
    13d6:	3e 83       	std	Y+6, r19	; 0x06
    13d8:	2d 83       	std	Y+5, r18	; 0x05
    13da:	e7 2f       	mov	r30, r23
    13dc:	f0 e0       	ldi	r31, 0x00	; 0
    13de:	f8 87       	std	Y+8, r31	; 0x08
    13e0:	ef 83       	std	Y+7, r30	; 0x07
    13e2:	59 87       	std	Y+9, r21	; 0x09
    13e4:	4a 81       	ldd	r20, Y+2	; 0x02
    13e6:	5b 81       	ldd	r21, Y+3	; 0x03
    13e8:	84 9f       	mul	r24, r20
    13ea:	90 01       	movw	r18, r0
    13ec:	85 9f       	mul	r24, r21
    13ee:	30 0d       	add	r19, r0
    13f0:	94 9f       	mul	r25, r20
    13f2:	30 0d       	add	r19, r0
    13f4:	11 24       	eor	r1, r1
    13f6:	49 01       	movw	r8, r18
    13f8:	58 e0       	ldi	r21, 0x08	; 8
    13fa:	85 0e       	add	r8, r21
    13fc:	91 1c       	adc	r9, r1
    13fe:	ad 84       	ldd	r10, Y+13	; 0x0d
    1400:	be 84       	ldd	r11, Y+14	; 0x0e
    1402:	6c 85       	ldd	r22, Y+12	; 0x0c
    1404:	c7 cf       	rjmp	.-114    	; 0x1394 <_ZN9screenmem6stringEhhPKhPKc+0x104>
    1406:	fc 01       	movw	r30, r24
    1408:	04 91       	lpm	r16, Z
    140a:	dd 24       	eor	r13, r13
    140c:	d3 94       	inc	r13
    140e:	d6 0e       	add	r13, r22
    1410:	26 2d       	mov	r18, r6
    1412:	47 2d       	mov	r20, r7
    1414:	c1 01       	movw	r24, r2
    1416:	c8 de       	rcall	.-624    	; 0x11a8 <_ZN9screenmem12draw_patternEhhhh>
    1418:	6d 2d       	mov	r22, r13
    141a:	b9 cf       	rjmp	.-142    	; 0x138e <_ZN9screenmem6stringEhhPKhPKc+0xfe>
    141c:	60 96       	adiw	r28, 0x10	; 16
    141e:	0f b6       	in	r0, 0x3f	; 63
    1420:	f8 94       	cli
    1422:	de bf       	out	0x3e, r29	; 62
    1424:	0f be       	out	0x3f, r0	; 63
    1426:	cd bf       	out	0x3d, r28	; 61
    1428:	df 91       	pop	r29
    142a:	cf 91       	pop	r28
    142c:	1f 91       	pop	r17
    142e:	0f 91       	pop	r16
    1430:	ff 90       	pop	r15
    1432:	ef 90       	pop	r14
    1434:	df 90       	pop	r13
    1436:	cf 90       	pop	r12
    1438:	bf 90       	pop	r11
    143a:	af 90       	pop	r10
    143c:	9f 90       	pop	r9
    143e:	8f 90       	pop	r8
    1440:	7f 90       	pop	r7
    1442:	6f 90       	pop	r6
    1444:	5f 90       	pop	r5
    1446:	4f 90       	pop	r4
    1448:	3f 90       	pop	r3
    144a:	2f 90       	pop	r2
    144c:	08 95       	ret

0000144e <_ZN9screenmem7pictureEhhPKh>:
    144e:	8f 92       	push	r8
    1450:	9f 92       	push	r9
    1452:	af 92       	push	r10
    1454:	bf 92       	push	r11
    1456:	cf 92       	push	r12
    1458:	df 92       	push	r13
    145a:	ef 92       	push	r14
    145c:	ff 92       	push	r15
    145e:	0f 93       	push	r16
    1460:	1f 93       	push	r17
    1462:	cf 93       	push	r28
    1464:	df 93       	push	r29
    1466:	7c 01       	movw	r14, r24
    1468:	69 01       	movw	r12, r18
    146a:	f9 01       	movw	r30, r18
    146c:	a4 90       	lpm	r10, Z
    146e:	31 96       	adiw	r30, 0x01	; 1
    1470:	84 91       	lpm	r24, Z
    1472:	90 e0       	ldi	r25, 0x00	; 0
    1474:	07 96       	adiw	r24, 0x07	; 7
    1476:	9c 01       	movw	r18, r24
    1478:	12 f4       	brpl	.+4      	; 0x147e <_ZN9screenmem7pictureEhhPKh+0x30>
    147a:	29 5f       	subi	r18, 0xF9	; 249
    147c:	3f 4f       	sbci	r19, 0xFF	; 255
    147e:	35 95       	asr	r19
    1480:	27 95       	ror	r18
    1482:	35 95       	asr	r19
    1484:	27 95       	ror	r18
    1486:	35 95       	asr	r19
    1488:	27 95       	ror	r18
    148a:	86 2f       	mov	r24, r22
    148c:	90 e0       	ldi	r25, 0x00	; 0
    148e:	8a 0d       	add	r24, r10
    1490:	91 1d       	adc	r25, r1
    1492:	81 38       	cpi	r24, 0x81	; 129
    1494:	91 05       	cpc	r25, r1
    1496:	1c f0       	brlt	.+6      	; 0x149e <_ZN9screenmem7pictureEhhPKh+0x50>
    1498:	80 e8       	ldi	r24, 0x80	; 128
    149a:	a8 2e       	mov	r10, r24
    149c:	a6 1a       	sub	r10, r22
    149e:	c4 2f       	mov	r28, r20
    14a0:	d0 e0       	ldi	r29, 0x00	; 0
    14a2:	ce 01       	movw	r24, r28
    14a4:	82 0f       	add	r24, r18
    14a6:	91 1d       	adc	r25, r1
    14a8:	09 97       	sbiw	r24, 0x09	; 9
    14aa:	14 f4       	brge	.+4      	; 0x14b0 <_ZN9screenmem7pictureEhhPKh+0x62>
    14ac:	82 2e       	mov	r8, r18
    14ae:	03 c0       	rjmp	.+6      	; 0x14b6 <_ZN9screenmem7pictureEhhPKh+0x68>
    14b0:	28 e0       	ldi	r18, 0x08	; 8
    14b2:	82 2e       	mov	r8, r18
    14b4:	84 1a       	sub	r8, r20
    14b6:	88 20       	and	r8, r8
    14b8:	69 f1       	breq	.+90     	; 0x1514 <_ZN9screenmem7pictureEhhPKh+0xc6>
    14ba:	d6 95       	lsr	r29
    14bc:	dc 2f       	mov	r29, r28
    14be:	cc 27       	eor	r28, r28
    14c0:	d7 95       	ror	r29
    14c2:	c7 95       	ror	r28
    14c4:	b1 2c       	mov	r11, r1
    14c6:	02 e0       	ldi	r16, 0x02	; 2
    14c8:	10 e0       	ldi	r17, 0x00	; 0
    14ca:	2a 2d       	mov	r18, r10
    14cc:	26 0f       	add	r18, r22
    14ce:	96 2e       	mov	r9, r22
    14d0:	6f ef       	ldi	r22, 0xFF	; 255
    14d2:	6a 0d       	add	r22, r10
    14d4:	70 e0       	ldi	r23, 0x00	; 0
    14d6:	6f 5f       	subi	r22, 0xFF	; 255
    14d8:	7f 4f       	sbci	r23, 0xFF	; 255
    14da:	12 c0       	rjmp	.+36     	; 0x1500 <_ZN9screenmem7pictureEhhPKh+0xb2>
    14dc:	31 e0       	ldi	r19, 0x01	; 1
    14de:	39 0f       	add	r19, r25
    14e0:	84 91       	lpm	r24, Z
    14e2:	da 01       	movw	r26, r20
    14e4:	a9 0f       	add	r26, r25
    14e6:	b1 1d       	adc	r27, r1
    14e8:	8c 93       	st	X, r24
    14ea:	31 96       	adiw	r30, 0x01	; 1
    14ec:	93 2f       	mov	r25, r19
    14ee:	32 13       	cpse	r19, r18
    14f0:	f5 cf       	rjmp	.-22     	; 0x14dc <_ZN9screenmem7pictureEhhPKh+0x8e>
    14f2:	06 0f       	add	r16, r22
    14f4:	17 1f       	adc	r17, r23
    14f6:	b3 94       	inc	r11
    14f8:	c0 58       	subi	r28, 0x80	; 128
    14fa:	df 4f       	sbci	r29, 0xFF	; 255
    14fc:	b8 14       	cp	r11, r8
    14fe:	51 f0       	breq	.+20     	; 0x1514 <_ZN9screenmem7pictureEhhPKh+0xc6>
    1500:	aa 20       	and	r10, r10
    1502:	c9 f3       	breq	.-14     	; 0x14f6 <_ZN9screenmem7pictureEhhPKh+0xa8>
    1504:	f6 01       	movw	r30, r12
    1506:	e0 0f       	add	r30, r16
    1508:	f1 1f       	adc	r31, r17
    150a:	99 2d       	mov	r25, r9
    150c:	a7 01       	movw	r20, r14
    150e:	4c 0f       	add	r20, r28
    1510:	5d 1f       	adc	r21, r29
    1512:	e4 cf       	rjmp	.-56     	; 0x14dc <_ZN9screenmem7pictureEhhPKh+0x8e>
    1514:	df 91       	pop	r29
    1516:	cf 91       	pop	r28
    1518:	1f 91       	pop	r17
    151a:	0f 91       	pop	r16
    151c:	ff 90       	pop	r15
    151e:	ef 90       	pop	r14
    1520:	df 90       	pop	r13
    1522:	cf 90       	pop	r12
    1524:	bf 90       	pop	r11
    1526:	af 90       	pop	r10
    1528:	9f 90       	pop	r9
    152a:	8f 90       	pop	r8
    152c:	08 95       	ret

0000152e <_ZN9screenmem5clearEv>:
    152e:	fc 01       	movw	r30, r24
    1530:	9c 5f       	subi	r25, 0xFC	; 252
    1532:	11 92       	st	Z+, r1
    1534:	e8 17       	cp	r30, r24
    1536:	f9 07       	cpc	r31, r25
    1538:	e1 f7       	brne	.-8      	; 0x1532 <_ZN9screenmem5clearEv+0x4>
    153a:	08 95       	ret

0000153c <_ZN12CAN_screen0110update10msER12CAN_Twizplay>:
    153c:	8f 92       	push	r8
    153e:	9f 92       	push	r9
    1540:	af 92       	push	r10
    1542:	bf 92       	push	r11
    1544:	cf 92       	push	r12
    1546:	df 92       	push	r13
    1548:	ef 92       	push	r14
    154a:	ff 92       	push	r15
    154c:	0f 93       	push	r16
    154e:	1f 93       	push	r17
    1550:	cf 93       	push	r28
    1552:	df 93       	push	r29
    1554:	ec 01       	movw	r28, r24
    1556:	8b 01       	movw	r16, r22
    1558:	8a 85       	ldd	r24, Y+10	; 0x0a
    155a:	9b 85       	ldd	r25, Y+11	; 0x0b
    155c:	80 3e       	cpi	r24, 0xE0	; 224
    155e:	2e e2       	ldi	r18, 0x2E	; 46
    1560:	92 07       	cpc	r25, r18
    1562:	20 f4       	brcc	.+8      	; 0x156c <_ZN12CAN_screen0110update10msER12CAN_Twizplay+0x30>
    1564:	01 96       	adiw	r24, 0x01	; 1
    1566:	9b 87       	std	Y+11, r25	; 0x0b
    1568:	8a 87       	std	Y+10, r24	; 0x0a
    156a:	06 c0       	rjmp	.+12     	; 0x1578 <_ZN12CAN_screen0110update10msER12CAN_Twizplay+0x3c>
    156c:	1a 8a       	std	Y+18, r1	; 0x12
    156e:	1b 8a       	std	Y+19, r1	; 0x13
    1570:	1c 8a       	std	Y+20, r1	; 0x14
    1572:	1d 8a       	std	Y+21, r1	; 0x15
    1574:	1d 86       	std	Y+13, r1	; 0x0d
    1576:	1c 86       	std	Y+12, r1	; 0x0c
    1578:	8e 84       	ldd	r8, Y+14	; 0x0e
    157a:	9f 84       	ldd	r9, Y+15	; 0x0f
    157c:	a8 88       	ldd	r10, Y+16	; 0x10
    157e:	b9 88       	ldd	r11, Y+17	; 0x11
    1580:	f8 01       	movw	r30, r16
    1582:	20 85       	ldd	r18, Z+8	; 0x08
    1584:	31 85       	ldd	r19, Z+9	; 0x09
    1586:	42 85       	ldd	r20, Z+10	; 0x0a
    1588:	53 85       	ldd	r21, Z+11	; 0x0b
    158a:	c5 01       	movw	r24, r10
    158c:	b4 01       	movw	r22, r8
    158e:	52 d6       	rcall	.+3236   	; 0x2234 <__cmpsf2>
    1590:	88 23       	and	r24, r24
    1592:	f1 f0       	breq	.+60     	; 0x15d0 <_ZN12CAN_screen0110update10msER12CAN_Twizplay+0x94>
    1594:	20 e0       	ldi	r18, 0x00	; 0
    1596:	30 e0       	ldi	r19, 0x00	; 0
    1598:	a9 01       	movw	r20, r18
    159a:	c5 01       	movw	r24, r10
    159c:	b4 01       	movw	r22, r8
    159e:	4a d6       	rcall	.+3220   	; 0x2234 <__cmpsf2>
    15a0:	88 23       	and	r24, r24
    15a2:	b1 f0       	breq	.+44     	; 0x15d0 <_ZN12CAN_screen0110update10msER12CAN_Twizplay+0x94>
    15a4:	ea 84       	ldd	r14, Y+10	; 0x0a
    15a6:	fb 84       	ldd	r15, Y+11	; 0x0b
    15a8:	b7 01       	movw	r22, r14
    15aa:	80 e0       	ldi	r24, 0x00	; 0
    15ac:	90 e0       	ldi	r25, 0x00	; 0
    15ae:	ae d6       	rcall	.+3420   	; 0x230c <__floatunsisf>
    15b0:	9b 01       	movw	r18, r22
    15b2:	ac 01       	movw	r20, r24
    15b4:	60 e0       	ldi	r22, 0x00	; 0
    15b6:	70 e0       	ldi	r23, 0x00	; 0
    15b8:	80 ef       	ldi	r24, 0xF0	; 240
    15ba:	92 e4       	ldi	r25, 0x42	; 66
    15bc:	3f d6       	rcall	.+3198   	; 0x223c <__divsf3>
    15be:	6a 8b       	std	Y+18, r22	; 0x12
    15c0:	7b 8b       	std	Y+19, r23	; 0x13
    15c2:	8c 8b       	std	Y+20, r24	; 0x14
    15c4:	9d 8b       	std	Y+21, r25	; 0x15
    15c6:	fd 86       	std	Y+13, r15	; 0x0d
    15c8:	ec 86       	std	Y+12, r14	; 0x0c
    15ca:	1b 86       	std	Y+11, r1	; 0x0b
    15cc:	1a 86       	std	Y+10, r1	; 0x0a
    15ce:	1f c0       	rjmp	.+62     	; 0x160e <_ZN12CAN_screen0110update10msER12CAN_Twizplay+0xd2>
    15d0:	ec 84       	ldd	r14, Y+12	; 0x0c
    15d2:	fd 84       	ldd	r15, Y+13	; 0x0d
    15d4:	ca 84       	ldd	r12, Y+10	; 0x0a
    15d6:	db 84       	ldd	r13, Y+11	; 0x0b
    15d8:	ec 14       	cp	r14, r12
    15da:	fd 04       	cpc	r15, r13
    15dc:	78 f4       	brcc	.+30     	; 0x15fc <_ZN12CAN_screen0110update10msER12CAN_Twizplay+0xc0>
    15de:	b6 01       	movw	r22, r12
    15e0:	80 e0       	ldi	r24, 0x00	; 0
    15e2:	90 e0       	ldi	r25, 0x00	; 0
    15e4:	93 d6       	rcall	.+3366   	; 0x230c <__floatunsisf>
    15e6:	9b 01       	movw	r18, r22
    15e8:	ac 01       	movw	r20, r24
    15ea:	60 e0       	ldi	r22, 0x00	; 0
    15ec:	70 e0       	ldi	r23, 0x00	; 0
    15ee:	80 ef       	ldi	r24, 0xF0	; 240
    15f0:	92 e4       	ldi	r25, 0x42	; 66
    15f2:	24 d6       	rcall	.+3144   	; 0x223c <__divsf3>
    15f4:	6a 8b       	std	Y+18, r22	; 0x12
    15f6:	7b 8b       	std	Y+19, r23	; 0x13
    15f8:	8c 8b       	std	Y+20, r24	; 0x14
    15fa:	9d 8b       	std	Y+21, r25	; 0x15
    15fc:	ee 0c       	add	r14, r14
    15fe:	ff 1c       	adc	r15, r15
    1600:	ec 14       	cp	r14, r12
    1602:	fd 04       	cpc	r15, r13
    1604:	20 f4       	brcc	.+8      	; 0x160e <_ZN12CAN_screen0110update10msER12CAN_Twizplay+0xd2>
    1606:	1a 8a       	std	Y+18, r1	; 0x12
    1608:	1b 8a       	std	Y+19, r1	; 0x13
    160a:	1c 8a       	std	Y+20, r1	; 0x14
    160c:	1d 8a       	std	Y+21, r1	; 0x15
    160e:	f8 01       	movw	r30, r16
    1610:	20 85       	ldd	r18, Z+8	; 0x08
    1612:	31 85       	ldd	r19, Z+9	; 0x09
    1614:	42 85       	ldd	r20, Z+10	; 0x0a
    1616:	53 85       	ldd	r21, Z+11	; 0x0b
    1618:	c5 01       	movw	r24, r10
    161a:	b4 01       	movw	r22, r8
    161c:	29 d7       	rcall	.+3666   	; 0x2470 <__gesf2>
    161e:	18 16       	cp	r1, r24
    1620:	4c f4       	brge	.+18     	; 0x1634 <_ZN12CAN_screen0110update10msER12CAN_Twizplay+0xf8>
    1622:	8a 89       	ldd	r24, Y+18	; 0x12
    1624:	9b 89       	ldd	r25, Y+19	; 0x13
    1626:	ac 89       	ldd	r26, Y+20	; 0x14
    1628:	bd 89       	ldd	r27, Y+21	; 0x15
    162a:	b0 58       	subi	r27, 0x80	; 128
    162c:	8a 8b       	std	Y+18, r24	; 0x12
    162e:	9b 8b       	std	Y+19, r25	; 0x13
    1630:	ac 8b       	std	Y+20, r26	; 0x14
    1632:	bd 8b       	std	Y+21, r27	; 0x15
    1634:	f8 01       	movw	r30, r16
    1636:	80 85       	ldd	r24, Z+8	; 0x08
    1638:	91 85       	ldd	r25, Z+9	; 0x09
    163a:	a2 85       	ldd	r26, Z+10	; 0x0a
    163c:	b3 85       	ldd	r27, Z+11	; 0x0b
    163e:	8e 87       	std	Y+14, r24	; 0x0e
    1640:	9f 87       	std	Y+15, r25	; 0x0f
    1642:	a8 8b       	std	Y+16, r26	; 0x10
    1644:	b9 8b       	std	Y+17, r27	; 0x11
    1646:	df 91       	pop	r29
    1648:	cf 91       	pop	r28
    164a:	1f 91       	pop	r17
    164c:	0f 91       	pop	r16
    164e:	ff 90       	pop	r15
    1650:	ef 90       	pop	r14
    1652:	df 90       	pop	r13
    1654:	cf 90       	pop	r12
    1656:	bf 90       	pop	r11
    1658:	af 90       	pop	r10
    165a:	9f 90       	pop	r9
    165c:	8f 90       	pop	r8
    165e:	08 95       	ret

00001660 <_ZN12CAN_screen016updateER12CAN_TwizplayR9screenmem>:
    1660:	af 92       	push	r10
    1662:	bf 92       	push	r11
    1664:	cf 92       	push	r12
    1666:	df 92       	push	r13
    1668:	ef 92       	push	r14
    166a:	ff 92       	push	r15
    166c:	0f 93       	push	r16
    166e:	1f 93       	push	r17
    1670:	cf 93       	push	r28
    1672:	df 93       	push	r29
    1674:	cd b7       	in	r28, 0x3d	; 61
    1676:	de b7       	in	r29, 0x3e	; 62
    1678:	2a 97       	sbiw	r28, 0x0a	; 10
    167a:	0f b6       	in	r0, 0x3f	; 63
    167c:	f8 94       	cli
    167e:	de bf       	out	0x3e, r29	; 62
    1680:	0f be       	out	0x3f, r0	; 63
    1682:	cd bf       	out	0x3d, r28	; 61
    1684:	5c 01       	movw	r10, r24
    1686:	6b 01       	movw	r12, r22
    1688:	7a 01       	movw	r14, r20
    168a:	ca 01       	movw	r24, r20
    168c:	50 df       	rcall	.-352    	; 0x152e <_ZN9screenmem5clearEv>
    168e:	f6 01       	movw	r30, r12
    1690:	60 81       	ld	r22, Z
    1692:	71 81       	ldd	r23, Z+1	; 0x01
    1694:	82 81       	ldd	r24, Z+2	; 0x02
    1696:	93 81       	ldd	r25, Z+3	; 0x03
    1698:	8e 01       	movw	r16, r28
    169a:	0f 5f       	subi	r16, 0xFF	; 255
    169c:	1f 4f       	sbci	r17, 0xFF	; 255
    169e:	22 e0       	ldi	r18, 0x02	; 2
    16a0:	46 e0       	ldi	r20, 0x06	; 6
    16a2:	4d d7       	rcall	.+3738   	; 0x253e <dtostrf>
    16a4:	00 e0       	ldi	r16, 0x00	; 0
    16a6:	11 e0       	ldi	r17, 0x01	; 1
    16a8:	20 e6       	ldi	r18, 0x60	; 96
    16aa:	35 e0       	ldi	r19, 0x05	; 5
    16ac:	40 e0       	ldi	r20, 0x00	; 0
    16ae:	60 e0       	ldi	r22, 0x00	; 0
    16b0:	c7 01       	movw	r24, r14
    16b2:	ee dd       	rcall	.-1060   	; 0x1290 <_ZN9screenmem6stringEhhPKhPKc>
    16b4:	8e 01       	movw	r16, r28
    16b6:	0f 5f       	subi	r16, 0xFF	; 255
    16b8:	1f 4f       	sbci	r17, 0xFF	; 255
    16ba:	20 e6       	ldi	r18, 0x60	; 96
    16bc:	35 e0       	ldi	r19, 0x05	; 5
    16be:	40 e0       	ldi	r20, 0x00	; 0
    16c0:	6a e4       	ldi	r22, 0x4A	; 74
    16c2:	c7 01       	movw	r24, r14
    16c4:	e5 dd       	rcall	.-1078   	; 0x1290 <_ZN9screenmem6stringEhhPKhPKc>
    16c6:	0b e0       	ldi	r16, 0x0B	; 11
    16c8:	11 e0       	ldi	r17, 0x01	; 1
    16ca:	20 e6       	ldi	r18, 0x60	; 96
    16cc:	35 e0       	ldi	r19, 0x05	; 5
    16ce:	40 e0       	ldi	r20, 0x00	; 0
    16d0:	62 e7       	ldi	r22, 0x72	; 114
    16d2:	c7 01       	movw	r24, r14
    16d4:	dd dd       	rcall	.-1094   	; 0x1290 <_ZN9screenmem6stringEhhPKhPKc>
    16d6:	f6 01       	movw	r30, r12
    16d8:	64 81       	ldd	r22, Z+4	; 0x04
    16da:	75 81       	ldd	r23, Z+5	; 0x05
    16dc:	86 81       	ldd	r24, Z+6	; 0x06
    16de:	97 81       	ldd	r25, Z+7	; 0x07
    16e0:	8e 01       	movw	r16, r28
    16e2:	0f 5f       	subi	r16, 0xFF	; 255
    16e4:	1f 4f       	sbci	r17, 0xFF	; 255
    16e6:	22 e0       	ldi	r18, 0x02	; 2
    16e8:	46 e0       	ldi	r20, 0x06	; 6
    16ea:	29 d7       	rcall	.+3666   	; 0x253e <dtostrf>
    16ec:	0d e0       	ldi	r16, 0x0D	; 13
    16ee:	11 e0       	ldi	r17, 0x01	; 1
    16f0:	20 e6       	ldi	r18, 0x60	; 96
    16f2:	35 e0       	ldi	r19, 0x05	; 5
    16f4:	48 e0       	ldi	r20, 0x08	; 8
    16f6:	60 e0       	ldi	r22, 0x00	; 0
    16f8:	c7 01       	movw	r24, r14
    16fa:	ca dd       	rcall	.-1132   	; 0x1290 <_ZN9screenmem6stringEhhPKhPKc>
    16fc:	8e 01       	movw	r16, r28
    16fe:	0f 5f       	subi	r16, 0xFF	; 255
    1700:	1f 4f       	sbci	r17, 0xFF	; 255
    1702:	20 e6       	ldi	r18, 0x60	; 96
    1704:	35 e0       	ldi	r19, 0x05	; 5
    1706:	48 e0       	ldi	r20, 0x08	; 8
    1708:	6a e4       	ldi	r22, 0x4A	; 74
    170a:	c7 01       	movw	r24, r14
    170c:	c1 dd       	rcall	.-1150   	; 0x1290 <_ZN9screenmem6stringEhhPKhPKc>
    170e:	08 e1       	ldi	r16, 0x18	; 24
    1710:	11 e0       	ldi	r17, 0x01	; 1
    1712:	20 e6       	ldi	r18, 0x60	; 96
    1714:	35 e0       	ldi	r19, 0x05	; 5
    1716:	48 e0       	ldi	r20, 0x08	; 8
    1718:	62 e7       	ldi	r22, 0x72	; 114
    171a:	c7 01       	movw	r24, r14
    171c:	b9 dd       	rcall	.-1166   	; 0x1290 <_ZN9screenmem6stringEhhPKhPKc>
    171e:	f6 01       	movw	r30, r12
    1720:	64 89       	ldd	r22, Z+20	; 0x14
    1722:	75 89       	ldd	r23, Z+21	; 0x15
    1724:	86 89       	ldd	r24, Z+22	; 0x16
    1726:	97 89       	ldd	r25, Z+23	; 0x17
    1728:	8e 01       	movw	r16, r28
    172a:	0f 5f       	subi	r16, 0xFF	; 255
    172c:	1f 4f       	sbci	r17, 0xFF	; 255
    172e:	22 e0       	ldi	r18, 0x02	; 2
    1730:	46 e0       	ldi	r20, 0x06	; 6
    1732:	05 d7       	rcall	.+3594   	; 0x253e <dtostrf>
    1734:	0b e1       	ldi	r16, 0x1B	; 27
    1736:	11 e0       	ldi	r17, 0x01	; 1
    1738:	20 e6       	ldi	r18, 0x60	; 96
    173a:	35 e0       	ldi	r19, 0x05	; 5
    173c:	40 e1       	ldi	r20, 0x10	; 16
    173e:	60 e0       	ldi	r22, 0x00	; 0
    1740:	c7 01       	movw	r24, r14
    1742:	a6 dd       	rcall	.-1204   	; 0x1290 <_ZN9screenmem6stringEhhPKhPKc>
    1744:	8e 01       	movw	r16, r28
    1746:	0f 5f       	subi	r16, 0xFF	; 255
    1748:	1f 4f       	sbci	r17, 0xFF	; 255
    174a:	20 e6       	ldi	r18, 0x60	; 96
    174c:	35 e0       	ldi	r19, 0x05	; 5
    174e:	40 e1       	ldi	r20, 0x10	; 16
    1750:	6a e4       	ldi	r22, 0x4A	; 74
    1752:	c7 01       	movw	r24, r14
    1754:	9d dd       	rcall	.-1222   	; 0x1290 <_ZN9screenmem6stringEhhPKhPKc>
    1756:	08 e1       	ldi	r16, 0x18	; 24
    1758:	11 e0       	ldi	r17, 0x01	; 1
    175a:	20 e6       	ldi	r18, 0x60	; 96
    175c:	35 e0       	ldi	r19, 0x05	; 5
    175e:	40 e1       	ldi	r20, 0x10	; 16
    1760:	62 e7       	ldi	r22, 0x72	; 114
    1762:	c7 01       	movw	r24, r14
    1764:	95 dd       	rcall	.-1238   	; 0x1290 <_ZN9screenmem6stringEhhPKhPKc>
    1766:	f6 01       	movw	r30, r12
    1768:	60 85       	ldd	r22, Z+8	; 0x08
    176a:	71 85       	ldd	r23, Z+9	; 0x09
    176c:	82 85       	ldd	r24, Z+10	; 0x0a
    176e:	93 85       	ldd	r25, Z+11	; 0x0b
    1770:	8e 01       	movw	r16, r28
    1772:	0f 5f       	subi	r16, 0xFF	; 255
    1774:	1f 4f       	sbci	r17, 0xFF	; 255
    1776:	22 e0       	ldi	r18, 0x02	; 2
    1778:	46 e0       	ldi	r20, 0x06	; 6
    177a:	e1 d6       	rcall	.+3522   	; 0x253e <dtostrf>
    177c:	08 e2       	ldi	r16, 0x28	; 40
    177e:	11 e0       	ldi	r17, 0x01	; 1
    1780:	20 e6       	ldi	r18, 0x60	; 96
    1782:	35 e0       	ldi	r19, 0x05	; 5
    1784:	48 e1       	ldi	r20, 0x18	; 24
    1786:	60 e0       	ldi	r22, 0x00	; 0
    1788:	c7 01       	movw	r24, r14
    178a:	82 dd       	rcall	.-1276   	; 0x1290 <_ZN9screenmem6stringEhhPKhPKc>
    178c:	8e 01       	movw	r16, r28
    178e:	0f 5f       	subi	r16, 0xFF	; 255
    1790:	1f 4f       	sbci	r17, 0xFF	; 255
    1792:	20 e6       	ldi	r18, 0x60	; 96
    1794:	35 e0       	ldi	r19, 0x05	; 5
    1796:	48 e1       	ldi	r20, 0x18	; 24
    1798:	6a e4       	ldi	r22, 0x4A	; 74
    179a:	c7 01       	movw	r24, r14
    179c:	79 dd       	rcall	.-1294   	; 0x1290 <_ZN9screenmem6stringEhhPKhPKc>
    179e:	02 e3       	ldi	r16, 0x32	; 50
    17a0:	11 e0       	ldi	r17, 0x01	; 1
    17a2:	20 e6       	ldi	r18, 0x60	; 96
    17a4:	35 e0       	ldi	r19, 0x05	; 5
    17a6:	48 e1       	ldi	r20, 0x18	; 24
    17a8:	62 e7       	ldi	r22, 0x72	; 114
    17aa:	c7 01       	movw	r24, r14
    17ac:	71 dd       	rcall	.-1310   	; 0x1290 <_ZN9screenmem6stringEhhPKhPKc>
    17ae:	f5 01       	movw	r30, r10
    17b0:	62 89       	ldd	r22, Z+18	; 0x12
    17b2:	73 89       	ldd	r23, Z+19	; 0x13
    17b4:	84 89       	ldd	r24, Z+20	; 0x14
    17b6:	95 89       	ldd	r25, Z+21	; 0x15
    17b8:	8e 01       	movw	r16, r28
    17ba:	0f 5f       	subi	r16, 0xFF	; 255
    17bc:	1f 4f       	sbci	r17, 0xFF	; 255
    17be:	22 e0       	ldi	r18, 0x02	; 2
    17c0:	46 e0       	ldi	r20, 0x06	; 6
    17c2:	bd d6       	rcall	.+3450   	; 0x253e <dtostrf>
    17c4:	20 e6       	ldi	r18, 0x60	; 96
    17c6:	35 e0       	ldi	r19, 0x05	; 5
    17c8:	40 e2       	ldi	r20, 0x20	; 32
    17ca:	6a e4       	ldi	r22, 0x4A	; 74
    17cc:	c7 01       	movw	r24, r14
    17ce:	60 dd       	rcall	.-1344   	; 0x1290 <_ZN9screenmem6stringEhhPKhPKc>
    17d0:	04 e3       	ldi	r16, 0x34	; 52
    17d2:	11 e0       	ldi	r17, 0x01	; 1
    17d4:	20 e6       	ldi	r18, 0x60	; 96
    17d6:	35 e0       	ldi	r19, 0x05	; 5
    17d8:	40 e2       	ldi	r20, 0x20	; 32
    17da:	60 e0       	ldi	r22, 0x00	; 0
    17dc:	c7 01       	movw	r24, r14
    17de:	58 dd       	rcall	.-1360   	; 0x1290 <_ZN9screenmem6stringEhhPKhPKc>
    17e0:	0f e3       	ldi	r16, 0x3F	; 63
    17e2:	11 e0       	ldi	r17, 0x01	; 1
    17e4:	20 e6       	ldi	r18, 0x60	; 96
    17e6:	35 e0       	ldi	r19, 0x05	; 5
    17e8:	40 e2       	ldi	r20, 0x20	; 32
    17ea:	6f e6       	ldi	r22, 0x6F	; 111
    17ec:	c7 01       	movw	r24, r14
    17ee:	50 dd       	rcall	.-1376   	; 0x1290 <_ZN9screenmem6stringEhhPKhPKc>
    17f0:	f6 01       	movw	r30, r12
    17f2:	60 89       	ldd	r22, Z+16	; 0x10
    17f4:	71 89       	ldd	r23, Z+17	; 0x11
    17f6:	82 89       	ldd	r24, Z+18	; 0x12
    17f8:	93 89       	ldd	r25, Z+19	; 0x13
    17fa:	8e 01       	movw	r16, r28
    17fc:	0f 5f       	subi	r16, 0xFF	; 255
    17fe:	1f 4f       	sbci	r17, 0xFF	; 255
    1800:	22 e0       	ldi	r18, 0x02	; 2
    1802:	46 e0       	ldi	r20, 0x06	; 6
    1804:	9c d6       	rcall	.+3384   	; 0x253e <dtostrf>
    1806:	03 e4       	ldi	r16, 0x43	; 67
    1808:	11 e0       	ldi	r17, 0x01	; 1
    180a:	20 e6       	ldi	r18, 0x60	; 96
    180c:	35 e0       	ldi	r19, 0x05	; 5
    180e:	48 e2       	ldi	r20, 0x28	; 40
    1810:	60 e0       	ldi	r22, 0x00	; 0
    1812:	c7 01       	movw	r24, r14
    1814:	3d dd       	rcall	.-1414   	; 0x1290 <_ZN9screenmem6stringEhhPKhPKc>
    1816:	8e 01       	movw	r16, r28
    1818:	0f 5f       	subi	r16, 0xFF	; 255
    181a:	1f 4f       	sbci	r17, 0xFF	; 255
    181c:	20 e6       	ldi	r18, 0x60	; 96
    181e:	35 e0       	ldi	r19, 0x05	; 5
    1820:	48 e2       	ldi	r20, 0x28	; 40
    1822:	6a e4       	ldi	r22, 0x4A	; 74
    1824:	c7 01       	movw	r24, r14
    1826:	34 dd       	rcall	.-1432   	; 0x1290 <_ZN9screenmem6stringEhhPKhPKc>
    1828:	00 e5       	ldi	r16, 0x50	; 80
    182a:	11 e0       	ldi	r17, 0x01	; 1
    182c:	20 e6       	ldi	r18, 0x60	; 96
    182e:	35 e0       	ldi	r19, 0x05	; 5
    1830:	48 e2       	ldi	r20, 0x28	; 40
    1832:	60 e7       	ldi	r22, 0x70	; 112
    1834:	c7 01       	movw	r24, r14
    1836:	2c dd       	rcall	.-1448   	; 0x1290 <_ZN9screenmem6stringEhhPKhPKc>
    1838:	02 e5       	ldi	r16, 0x52	; 82
    183a:	11 e0       	ldi	r17, 0x01	; 1
    183c:	20 e6       	ldi	r18, 0x60	; 96
    183e:	35 e0       	ldi	r19, 0x05	; 5
    1840:	48 e2       	ldi	r20, 0x28	; 40
    1842:	65 e7       	ldi	r22, 0x75	; 117
    1844:	c7 01       	movw	r24, r14
    1846:	24 dd       	rcall	.-1464   	; 0x1290 <_ZN9screenmem6stringEhhPKhPKc>
    1848:	f6 01       	movw	r30, r12
    184a:	60 8d       	ldd	r22, Z+24	; 0x18
    184c:	71 8d       	ldd	r23, Z+25	; 0x19
    184e:	82 8d       	ldd	r24, Z+26	; 0x1a
    1850:	93 8d       	ldd	r25, Z+27	; 0x1b
    1852:	8e 01       	movw	r16, r28
    1854:	0f 5f       	subi	r16, 0xFF	; 255
    1856:	1f 4f       	sbci	r17, 0xFF	; 255
    1858:	22 e0       	ldi	r18, 0x02	; 2
    185a:	46 e0       	ldi	r20, 0x06	; 6
    185c:	70 d6       	rcall	.+3296   	; 0x253e <dtostrf>
    185e:	05 e5       	ldi	r16, 0x55	; 85
    1860:	11 e0       	ldi	r17, 0x01	; 1
    1862:	20 e6       	ldi	r18, 0x60	; 96
    1864:	35 e0       	ldi	r19, 0x05	; 5
    1866:	40 e3       	ldi	r20, 0x30	; 48
    1868:	60 e0       	ldi	r22, 0x00	; 0
    186a:	c7 01       	movw	r24, r14
    186c:	11 dd       	rcall	.-1502   	; 0x1290 <_ZN9screenmem6stringEhhPKhPKc>
    186e:	8e 01       	movw	r16, r28
    1870:	0f 5f       	subi	r16, 0xFF	; 255
    1872:	1f 4f       	sbci	r17, 0xFF	; 255
    1874:	20 e6       	ldi	r18, 0x60	; 96
    1876:	35 e0       	ldi	r19, 0x05	; 5
    1878:	40 e3       	ldi	r20, 0x30	; 48
    187a:	6a e4       	ldi	r22, 0x4A	; 74
    187c:	c7 01       	movw	r24, r14
    187e:	08 dd       	rcall	.-1520   	; 0x1290 <_ZN9screenmem6stringEhhPKhPKc>
    1880:	02 e3       	ldi	r16, 0x32	; 50
    1882:	11 e0       	ldi	r17, 0x01	; 1
    1884:	20 e6       	ldi	r18, 0x60	; 96
    1886:	35 e0       	ldi	r19, 0x05	; 5
    1888:	40 e3       	ldi	r20, 0x30	; 48
    188a:	62 e7       	ldi	r22, 0x72	; 114
    188c:	c7 01       	movw	r24, r14
    188e:	00 dd       	rcall	.-1536   	; 0x1290 <_ZN9screenmem6stringEhhPKhPKc>
    1890:	f6 01       	movw	r30, r12
    1892:	64 8d       	ldd	r22, Z+28	; 0x1c
    1894:	75 8d       	ldd	r23, Z+29	; 0x1d
    1896:	86 8d       	ldd	r24, Z+30	; 0x1e
    1898:	97 8d       	ldd	r25, Z+31	; 0x1f
    189a:	8e 01       	movw	r16, r28
    189c:	0f 5f       	subi	r16, 0xFF	; 255
    189e:	1f 4f       	sbci	r17, 0xFF	; 255
    18a0:	22 e0       	ldi	r18, 0x02	; 2
    18a2:	46 e0       	ldi	r20, 0x06	; 6
    18a4:	4c d6       	rcall	.+3224   	; 0x253e <dtostrf>
    18a6:	00 e6       	ldi	r16, 0x60	; 96
    18a8:	11 e0       	ldi	r17, 0x01	; 1
    18aa:	20 e6       	ldi	r18, 0x60	; 96
    18ac:	35 e0       	ldi	r19, 0x05	; 5
    18ae:	48 e3       	ldi	r20, 0x38	; 56
    18b0:	60 e0       	ldi	r22, 0x00	; 0
    18b2:	c7 01       	movw	r24, r14
    18b4:	ed dc       	rcall	.-1574   	; 0x1290 <_ZN9screenmem6stringEhhPKhPKc>
    18b6:	8e 01       	movw	r16, r28
    18b8:	0f 5f       	subi	r16, 0xFF	; 255
    18ba:	1f 4f       	sbci	r17, 0xFF	; 255
    18bc:	20 e6       	ldi	r18, 0x60	; 96
    18be:	35 e0       	ldi	r19, 0x05	; 5
    18c0:	48 e3       	ldi	r20, 0x38	; 56
    18c2:	6a e4       	ldi	r22, 0x4A	; 74
    18c4:	c7 01       	movw	r24, r14
    18c6:	e4 dc       	rcall	.-1592   	; 0x1290 <_ZN9screenmem6stringEhhPKhPKc>
    18c8:	06 e0       	ldi	r16, 0x06	; 6
    18ca:	28 e0       	ldi	r18, 0x08	; 8
    18cc:	48 e3       	ldi	r20, 0x38	; 56
    18ce:	63 e7       	ldi	r22, 0x73	; 115
    18d0:	c7 01       	movw	r24, r14
    18d2:	6a dc       	rcall	.-1836   	; 0x11a8 <_ZN9screenmem12draw_patternEhhhh>
    18d4:	09 e0       	ldi	r16, 0x09	; 9
    18d6:	28 e0       	ldi	r18, 0x08	; 8
    18d8:	48 e3       	ldi	r20, 0x38	; 56
    18da:	64 e7       	ldi	r22, 0x74	; 116
    18dc:	c7 01       	movw	r24, r14
    18de:	64 dc       	rcall	.-1848   	; 0x11a8 <_ZN9screenmem12draw_patternEhhhh>
    18e0:	28 e0       	ldi	r18, 0x08	; 8
    18e2:	48 e3       	ldi	r20, 0x38	; 56
    18e4:	65 e7       	ldi	r22, 0x75	; 117
    18e6:	c7 01       	movw	r24, r14
    18e8:	5f dc       	rcall	.-1858   	; 0x11a8 <_ZN9screenmem12draw_patternEhhhh>
    18ea:	06 e0       	ldi	r16, 0x06	; 6
    18ec:	28 e0       	ldi	r18, 0x08	; 8
    18ee:	48 e3       	ldi	r20, 0x38	; 56
    18f0:	66 e7       	ldi	r22, 0x76	; 118
    18f2:	c7 01       	movw	r24, r14
    18f4:	59 dc       	rcall	.-1870   	; 0x11a8 <_ZN9screenmem12draw_patternEhhhh>
    18f6:	0b e6       	ldi	r16, 0x6B	; 107
    18f8:	11 e0       	ldi	r17, 0x01	; 1
    18fa:	20 e6       	ldi	r18, 0x60	; 96
    18fc:	35 e0       	ldi	r19, 0x05	; 5
    18fe:	48 e3       	ldi	r20, 0x38	; 56
    1900:	68 e7       	ldi	r22, 0x78	; 120
    1902:	c7 01       	movw	r24, r14
    1904:	c5 dc       	rcall	.-1654   	; 0x1290 <_ZN9screenmem6stringEhhPKhPKc>
    1906:	2a 96       	adiw	r28, 0x0a	; 10
    1908:	0f b6       	in	r0, 0x3f	; 63
    190a:	f8 94       	cli
    190c:	de bf       	out	0x3e, r29	; 62
    190e:	0f be       	out	0x3f, r0	; 63
    1910:	cd bf       	out	0x3d, r28	; 61
    1912:	df 91       	pop	r29
    1914:	cf 91       	pop	r28
    1916:	1f 91       	pop	r17
    1918:	0f 91       	pop	r16
    191a:	ff 90       	pop	r15
    191c:	ef 90       	pop	r14
    191e:	df 90       	pop	r13
    1920:	cf 90       	pop	r12
    1922:	bf 90       	pop	r11
    1924:	af 90       	pop	r10
    1926:	08 95       	ret

00001928 <_ZN12CAN_screen026updateER12CAN_TwizplayR9screenmem>:
    1928:	cf 92       	push	r12
    192a:	df 92       	push	r13
    192c:	ef 92       	push	r14
    192e:	ff 92       	push	r15
    1930:	0f 93       	push	r16
    1932:	1f 93       	push	r17
    1934:	cf 93       	push	r28
    1936:	df 93       	push	r29
    1938:	ec 01       	movw	r28, r24
    193a:	6b 01       	movw	r12, r22
    193c:	7a 01       	movw	r14, r20
    193e:	fb 01       	movw	r30, r22
    1940:	e0 52       	subi	r30, 0x20	; 32
    1942:	ff 4f       	sbci	r31, 0xFF	; 255
    1944:	80 81       	ld	r24, Z
    1946:	40 e1       	ldi	r20, 0x10	; 16
    1948:	be 01       	movw	r22, r28
    194a:	90 e0       	ldi	r25, 0x00	; 0
    194c:	17 d6       	rcall	.+3118   	; 0x257c <__itoa_ncheck>
    194e:	8e 01       	movw	r16, r28
    1950:	20 e6       	ldi	r18, 0x60	; 96
    1952:	35 e0       	ldi	r19, 0x05	; 5
    1954:	48 e2       	ldi	r20, 0x28	; 40
    1956:	60 e0       	ldi	r22, 0x00	; 0
    1958:	c7 01       	movw	r24, r14
    195a:	9a dc       	rcall	.-1740   	; 0x1290 <_ZN9screenmem6stringEhhPKhPKc>
    195c:	f6 01       	movw	r30, r12
    195e:	ef 51       	subi	r30, 0x1F	; 31
    1960:	ff 4f       	sbci	r31, 0xFF	; 255
    1962:	80 81       	ld	r24, Z
    1964:	40 e1       	ldi	r20, 0x10	; 16
    1966:	be 01       	movw	r22, r28
    1968:	90 e0       	ldi	r25, 0x00	; 0
    196a:	08 d6       	rcall	.+3088   	; 0x257c <__itoa_ncheck>
    196c:	20 e6       	ldi	r18, 0x60	; 96
    196e:	35 e0       	ldi	r19, 0x05	; 5
    1970:	48 e2       	ldi	r20, 0x28	; 40
    1972:	60 e1       	ldi	r22, 0x10	; 16
    1974:	c7 01       	movw	r24, r14
    1976:	8c dc       	rcall	.-1768   	; 0x1290 <_ZN9screenmem6stringEhhPKhPKc>
    1978:	f6 01       	movw	r30, r12
    197a:	ee 51       	subi	r30, 0x1E	; 30
    197c:	ff 4f       	sbci	r31, 0xFF	; 255
    197e:	80 81       	ld	r24, Z
    1980:	40 e1       	ldi	r20, 0x10	; 16
    1982:	be 01       	movw	r22, r28
    1984:	90 e0       	ldi	r25, 0x00	; 0
    1986:	fa d5       	rcall	.+3060   	; 0x257c <__itoa_ncheck>
    1988:	20 e6       	ldi	r18, 0x60	; 96
    198a:	35 e0       	ldi	r19, 0x05	; 5
    198c:	48 e2       	ldi	r20, 0x28	; 40
    198e:	60 e2       	ldi	r22, 0x20	; 32
    1990:	c7 01       	movw	r24, r14
    1992:	7e dc       	rcall	.-1796   	; 0x1290 <_ZN9screenmem6stringEhhPKhPKc>
    1994:	f6 01       	movw	r30, r12
    1996:	ed 51       	subi	r30, 0x1D	; 29
    1998:	ff 4f       	sbci	r31, 0xFF	; 255
    199a:	80 81       	ld	r24, Z
    199c:	40 e1       	ldi	r20, 0x10	; 16
    199e:	be 01       	movw	r22, r28
    19a0:	90 e0       	ldi	r25, 0x00	; 0
    19a2:	ec d5       	rcall	.+3032   	; 0x257c <__itoa_ncheck>
    19a4:	20 e6       	ldi	r18, 0x60	; 96
    19a6:	35 e0       	ldi	r19, 0x05	; 5
    19a8:	48 e2       	ldi	r20, 0x28	; 40
    19aa:	60 e3       	ldi	r22, 0x30	; 48
    19ac:	c7 01       	movw	r24, r14
    19ae:	70 dc       	rcall	.-1824   	; 0x1290 <_ZN9screenmem6stringEhhPKhPKc>
    19b0:	f6 01       	movw	r30, r12
    19b2:	ec 51       	subi	r30, 0x1C	; 28
    19b4:	ff 4f       	sbci	r31, 0xFF	; 255
    19b6:	80 81       	ld	r24, Z
    19b8:	40 e1       	ldi	r20, 0x10	; 16
    19ba:	be 01       	movw	r22, r28
    19bc:	90 e0       	ldi	r25, 0x00	; 0
    19be:	de d5       	rcall	.+3004   	; 0x257c <__itoa_ncheck>
    19c0:	20 e6       	ldi	r18, 0x60	; 96
    19c2:	35 e0       	ldi	r19, 0x05	; 5
    19c4:	48 e2       	ldi	r20, 0x28	; 40
    19c6:	60 e4       	ldi	r22, 0x40	; 64
    19c8:	c7 01       	movw	r24, r14
    19ca:	62 dc       	rcall	.-1852   	; 0x1290 <_ZN9screenmem6stringEhhPKhPKc>
    19cc:	f6 01       	movw	r30, r12
    19ce:	eb 51       	subi	r30, 0x1B	; 27
    19d0:	ff 4f       	sbci	r31, 0xFF	; 255
    19d2:	80 81       	ld	r24, Z
    19d4:	40 e1       	ldi	r20, 0x10	; 16
    19d6:	be 01       	movw	r22, r28
    19d8:	90 e0       	ldi	r25, 0x00	; 0
    19da:	d0 d5       	rcall	.+2976   	; 0x257c <__itoa_ncheck>
    19dc:	20 e6       	ldi	r18, 0x60	; 96
    19de:	35 e0       	ldi	r19, 0x05	; 5
    19e0:	48 e2       	ldi	r20, 0x28	; 40
    19e2:	60 e5       	ldi	r22, 0x50	; 80
    19e4:	c7 01       	movw	r24, r14
    19e6:	54 dc       	rcall	.-1880   	; 0x1290 <_ZN9screenmem6stringEhhPKhPKc>
    19e8:	f6 01       	movw	r30, r12
    19ea:	ea 51       	subi	r30, 0x1A	; 26
    19ec:	ff 4f       	sbci	r31, 0xFF	; 255
    19ee:	80 81       	ld	r24, Z
    19f0:	40 e1       	ldi	r20, 0x10	; 16
    19f2:	be 01       	movw	r22, r28
    19f4:	90 e0       	ldi	r25, 0x00	; 0
    19f6:	c2 d5       	rcall	.+2948   	; 0x257c <__itoa_ncheck>
    19f8:	20 e6       	ldi	r18, 0x60	; 96
    19fa:	35 e0       	ldi	r19, 0x05	; 5
    19fc:	48 e2       	ldi	r20, 0x28	; 40
    19fe:	60 e6       	ldi	r22, 0x60	; 96
    1a00:	c7 01       	movw	r24, r14
    1a02:	46 dc       	rcall	.-1908   	; 0x1290 <_ZN9screenmem6stringEhhPKhPKc>
    1a04:	f6 01       	movw	r30, r12
    1a06:	e9 51       	subi	r30, 0x19	; 25
    1a08:	ff 4f       	sbci	r31, 0xFF	; 255
    1a0a:	80 81       	ld	r24, Z
    1a0c:	40 e1       	ldi	r20, 0x10	; 16
    1a0e:	be 01       	movw	r22, r28
    1a10:	90 e0       	ldi	r25, 0x00	; 0
    1a12:	b4 d5       	rcall	.+2920   	; 0x257c <__itoa_ncheck>
    1a14:	20 e6       	ldi	r18, 0x60	; 96
    1a16:	35 e0       	ldi	r19, 0x05	; 5
    1a18:	48 e2       	ldi	r20, 0x28	; 40
    1a1a:	60 e7       	ldi	r22, 0x70	; 112
    1a1c:	c7 01       	movw	r24, r14
    1a1e:	38 dc       	rcall	.-1936   	; 0x1290 <_ZN9screenmem6stringEhhPKhPKc>
    1a20:	f6 01       	movw	r30, r12
    1a22:	e8 51       	subi	r30, 0x18	; 24
    1a24:	ff 4f       	sbci	r31, 0xFF	; 255
    1a26:	80 81       	ld	r24, Z
    1a28:	40 e1       	ldi	r20, 0x10	; 16
    1a2a:	be 01       	movw	r22, r28
    1a2c:	90 e0       	ldi	r25, 0x00	; 0
    1a2e:	a6 d5       	rcall	.+2892   	; 0x257c <__itoa_ncheck>
    1a30:	20 e6       	ldi	r18, 0x60	; 96
    1a32:	35 e0       	ldi	r19, 0x05	; 5
    1a34:	40 e3       	ldi	r20, 0x30	; 48
    1a36:	60 e0       	ldi	r22, 0x00	; 0
    1a38:	c7 01       	movw	r24, r14
    1a3a:	2a dc       	rcall	.-1964   	; 0x1290 <_ZN9screenmem6stringEhhPKhPKc>
    1a3c:	f6 01       	movw	r30, r12
    1a3e:	e7 51       	subi	r30, 0x17	; 23
    1a40:	ff 4f       	sbci	r31, 0xFF	; 255
    1a42:	80 81       	ld	r24, Z
    1a44:	40 e1       	ldi	r20, 0x10	; 16
    1a46:	be 01       	movw	r22, r28
    1a48:	90 e0       	ldi	r25, 0x00	; 0
    1a4a:	98 d5       	rcall	.+2864   	; 0x257c <__itoa_ncheck>
    1a4c:	20 e6       	ldi	r18, 0x60	; 96
    1a4e:	35 e0       	ldi	r19, 0x05	; 5
    1a50:	40 e3       	ldi	r20, 0x30	; 48
    1a52:	60 e1       	ldi	r22, 0x10	; 16
    1a54:	c7 01       	movw	r24, r14
    1a56:	1c dc       	rcall	.-1992   	; 0x1290 <_ZN9screenmem6stringEhhPKhPKc>
    1a58:	f6 01       	movw	r30, r12
    1a5a:	e6 51       	subi	r30, 0x16	; 22
    1a5c:	ff 4f       	sbci	r31, 0xFF	; 255
    1a5e:	80 81       	ld	r24, Z
    1a60:	40 e1       	ldi	r20, 0x10	; 16
    1a62:	be 01       	movw	r22, r28
    1a64:	90 e0       	ldi	r25, 0x00	; 0
    1a66:	8a d5       	rcall	.+2836   	; 0x257c <__itoa_ncheck>
    1a68:	20 e6       	ldi	r18, 0x60	; 96
    1a6a:	35 e0       	ldi	r19, 0x05	; 5
    1a6c:	40 e3       	ldi	r20, 0x30	; 48
    1a6e:	60 e2       	ldi	r22, 0x20	; 32
    1a70:	c7 01       	movw	r24, r14
    1a72:	0e dc       	rcall	.-2020   	; 0x1290 <_ZN9screenmem6stringEhhPKhPKc>
    1a74:	f6 01       	movw	r30, r12
    1a76:	e5 51       	subi	r30, 0x15	; 21
    1a78:	ff 4f       	sbci	r31, 0xFF	; 255
    1a7a:	80 81       	ld	r24, Z
    1a7c:	40 e1       	ldi	r20, 0x10	; 16
    1a7e:	be 01       	movw	r22, r28
    1a80:	90 e0       	ldi	r25, 0x00	; 0
    1a82:	7c d5       	rcall	.+2808   	; 0x257c <__itoa_ncheck>
    1a84:	20 e6       	ldi	r18, 0x60	; 96
    1a86:	35 e0       	ldi	r19, 0x05	; 5
    1a88:	40 e3       	ldi	r20, 0x30	; 48
    1a8a:	60 e3       	ldi	r22, 0x30	; 48
    1a8c:	c7 01       	movw	r24, r14
    1a8e:	00 dc       	rcall	.-2048   	; 0x1290 <_ZN9screenmem6stringEhhPKhPKc>
    1a90:	f6 01       	movw	r30, r12
    1a92:	e4 51       	subi	r30, 0x14	; 20
    1a94:	ff 4f       	sbci	r31, 0xFF	; 255
    1a96:	80 81       	ld	r24, Z
    1a98:	40 e1       	ldi	r20, 0x10	; 16
    1a9a:	be 01       	movw	r22, r28
    1a9c:	90 e0       	ldi	r25, 0x00	; 0
    1a9e:	6e d5       	rcall	.+2780   	; 0x257c <__itoa_ncheck>
    1aa0:	20 e6       	ldi	r18, 0x60	; 96
    1aa2:	35 e0       	ldi	r19, 0x05	; 5
    1aa4:	40 e3       	ldi	r20, 0x30	; 48
    1aa6:	60 e4       	ldi	r22, 0x40	; 64
    1aa8:	c7 01       	movw	r24, r14
    1aaa:	f2 db       	rcall	.-2076   	; 0x1290 <_ZN9screenmem6stringEhhPKhPKc>
    1aac:	f6 01       	movw	r30, r12
    1aae:	e3 51       	subi	r30, 0x13	; 19
    1ab0:	ff 4f       	sbci	r31, 0xFF	; 255
    1ab2:	80 81       	ld	r24, Z
    1ab4:	40 e1       	ldi	r20, 0x10	; 16
    1ab6:	be 01       	movw	r22, r28
    1ab8:	90 e0       	ldi	r25, 0x00	; 0
    1aba:	60 d5       	rcall	.+2752   	; 0x257c <__itoa_ncheck>
    1abc:	20 e6       	ldi	r18, 0x60	; 96
    1abe:	35 e0       	ldi	r19, 0x05	; 5
    1ac0:	40 e3       	ldi	r20, 0x30	; 48
    1ac2:	60 e5       	ldi	r22, 0x50	; 80
    1ac4:	c7 01       	movw	r24, r14
    1ac6:	e4 db       	rcall	.-2104   	; 0x1290 <_ZN9screenmem6stringEhhPKhPKc>
    1ac8:	f6 01       	movw	r30, r12
    1aca:	e2 51       	subi	r30, 0x12	; 18
    1acc:	ff 4f       	sbci	r31, 0xFF	; 255
    1ace:	80 81       	ld	r24, Z
    1ad0:	40 e1       	ldi	r20, 0x10	; 16
    1ad2:	be 01       	movw	r22, r28
    1ad4:	90 e0       	ldi	r25, 0x00	; 0
    1ad6:	52 d5       	rcall	.+2724   	; 0x257c <__itoa_ncheck>
    1ad8:	20 e6       	ldi	r18, 0x60	; 96
    1ada:	35 e0       	ldi	r19, 0x05	; 5
    1adc:	40 e3       	ldi	r20, 0x30	; 48
    1ade:	60 e6       	ldi	r22, 0x60	; 96
    1ae0:	c7 01       	movw	r24, r14
    1ae2:	d6 db       	rcall	.-2132   	; 0x1290 <_ZN9screenmem6stringEhhPKhPKc>
    1ae4:	f6 01       	movw	r30, r12
    1ae6:	e1 51       	subi	r30, 0x11	; 17
    1ae8:	ff 4f       	sbci	r31, 0xFF	; 255
    1aea:	80 81       	ld	r24, Z
    1aec:	40 e1       	ldi	r20, 0x10	; 16
    1aee:	be 01       	movw	r22, r28
    1af0:	90 e0       	ldi	r25, 0x00	; 0
    1af2:	44 d5       	rcall	.+2696   	; 0x257c <__itoa_ncheck>
    1af4:	20 e6       	ldi	r18, 0x60	; 96
    1af6:	35 e0       	ldi	r19, 0x05	; 5
    1af8:	40 e3       	ldi	r20, 0x30	; 48
    1afa:	60 e7       	ldi	r22, 0x70	; 112
    1afc:	c7 01       	movw	r24, r14
    1afe:	c8 db       	rcall	.-2160   	; 0x1290 <_ZN9screenmem6stringEhhPKhPKc>
    1b00:	f6 01       	movw	r30, r12
    1b02:	e0 51       	subi	r30, 0x10	; 16
    1b04:	ff 4f       	sbci	r31, 0xFF	; 255
    1b06:	80 81       	ld	r24, Z
    1b08:	40 e1       	ldi	r20, 0x10	; 16
    1b0a:	be 01       	movw	r22, r28
    1b0c:	90 e0       	ldi	r25, 0x00	; 0
    1b0e:	36 d5       	rcall	.+2668   	; 0x257c <__itoa_ncheck>
    1b10:	20 e6       	ldi	r18, 0x60	; 96
    1b12:	35 e0       	ldi	r19, 0x05	; 5
    1b14:	48 e3       	ldi	r20, 0x38	; 56
    1b16:	60 e0       	ldi	r22, 0x00	; 0
    1b18:	c7 01       	movw	r24, r14
    1b1a:	ba db       	rcall	.-2188   	; 0x1290 <_ZN9screenmem6stringEhhPKhPKc>
    1b1c:	f6 01       	movw	r30, r12
    1b1e:	ef 50       	subi	r30, 0x0F	; 15
    1b20:	ff 4f       	sbci	r31, 0xFF	; 255
    1b22:	80 81       	ld	r24, Z
    1b24:	40 e1       	ldi	r20, 0x10	; 16
    1b26:	be 01       	movw	r22, r28
    1b28:	90 e0       	ldi	r25, 0x00	; 0
    1b2a:	28 d5       	rcall	.+2640   	; 0x257c <__itoa_ncheck>
    1b2c:	20 e6       	ldi	r18, 0x60	; 96
    1b2e:	35 e0       	ldi	r19, 0x05	; 5
    1b30:	48 e3       	ldi	r20, 0x38	; 56
    1b32:	60 e1       	ldi	r22, 0x10	; 16
    1b34:	c7 01       	movw	r24, r14
    1b36:	ac db       	rcall	.-2216   	; 0x1290 <_ZN9screenmem6stringEhhPKhPKc>
    1b38:	f6 01       	movw	r30, r12
    1b3a:	ee 50       	subi	r30, 0x0E	; 14
    1b3c:	ff 4f       	sbci	r31, 0xFF	; 255
    1b3e:	80 81       	ld	r24, Z
    1b40:	40 e1       	ldi	r20, 0x10	; 16
    1b42:	be 01       	movw	r22, r28
    1b44:	90 e0       	ldi	r25, 0x00	; 0
    1b46:	1a d5       	rcall	.+2612   	; 0x257c <__itoa_ncheck>
    1b48:	20 e6       	ldi	r18, 0x60	; 96
    1b4a:	35 e0       	ldi	r19, 0x05	; 5
    1b4c:	48 e3       	ldi	r20, 0x38	; 56
    1b4e:	60 e2       	ldi	r22, 0x20	; 32
    1b50:	c7 01       	movw	r24, r14
    1b52:	9e db       	rcall	.-2244   	; 0x1290 <_ZN9screenmem6stringEhhPKhPKc>
    1b54:	f6 01       	movw	r30, r12
    1b56:	ed 50       	subi	r30, 0x0D	; 13
    1b58:	ff 4f       	sbci	r31, 0xFF	; 255
    1b5a:	80 81       	ld	r24, Z
    1b5c:	40 e1       	ldi	r20, 0x10	; 16
    1b5e:	be 01       	movw	r22, r28
    1b60:	90 e0       	ldi	r25, 0x00	; 0
    1b62:	0c d5       	rcall	.+2584   	; 0x257c <__itoa_ncheck>
    1b64:	20 e6       	ldi	r18, 0x60	; 96
    1b66:	35 e0       	ldi	r19, 0x05	; 5
    1b68:	48 e3       	ldi	r20, 0x38	; 56
    1b6a:	60 e3       	ldi	r22, 0x30	; 48
    1b6c:	c7 01       	movw	r24, r14
    1b6e:	90 db       	rcall	.-2272   	; 0x1290 <_ZN9screenmem6stringEhhPKhPKc>
    1b70:	f6 01       	movw	r30, r12
    1b72:	ec 50       	subi	r30, 0x0C	; 12
    1b74:	ff 4f       	sbci	r31, 0xFF	; 255
    1b76:	80 81       	ld	r24, Z
    1b78:	40 e1       	ldi	r20, 0x10	; 16
    1b7a:	be 01       	movw	r22, r28
    1b7c:	90 e0       	ldi	r25, 0x00	; 0
    1b7e:	fe d4       	rcall	.+2556   	; 0x257c <__itoa_ncheck>
    1b80:	20 e6       	ldi	r18, 0x60	; 96
    1b82:	35 e0       	ldi	r19, 0x05	; 5
    1b84:	48 e3       	ldi	r20, 0x38	; 56
    1b86:	60 e4       	ldi	r22, 0x40	; 64
    1b88:	c7 01       	movw	r24, r14
    1b8a:	82 db       	rcall	.-2300   	; 0x1290 <_ZN9screenmem6stringEhhPKhPKc>
    1b8c:	f6 01       	movw	r30, r12
    1b8e:	eb 50       	subi	r30, 0x0B	; 11
    1b90:	ff 4f       	sbci	r31, 0xFF	; 255
    1b92:	80 81       	ld	r24, Z
    1b94:	40 e1       	ldi	r20, 0x10	; 16
    1b96:	be 01       	movw	r22, r28
    1b98:	90 e0       	ldi	r25, 0x00	; 0
    1b9a:	f0 d4       	rcall	.+2528   	; 0x257c <__itoa_ncheck>
    1b9c:	20 e6       	ldi	r18, 0x60	; 96
    1b9e:	35 e0       	ldi	r19, 0x05	; 5
    1ba0:	48 e3       	ldi	r20, 0x38	; 56
    1ba2:	60 e5       	ldi	r22, 0x50	; 80
    1ba4:	c7 01       	movw	r24, r14
    1ba6:	74 db       	rcall	.-2328   	; 0x1290 <_ZN9screenmem6stringEhhPKhPKc>
    1ba8:	f6 01       	movw	r30, r12
    1baa:	ea 50       	subi	r30, 0x0A	; 10
    1bac:	ff 4f       	sbci	r31, 0xFF	; 255
    1bae:	80 81       	ld	r24, Z
    1bb0:	40 e1       	ldi	r20, 0x10	; 16
    1bb2:	be 01       	movw	r22, r28
    1bb4:	90 e0       	ldi	r25, 0x00	; 0
    1bb6:	e2 d4       	rcall	.+2500   	; 0x257c <__itoa_ncheck>
    1bb8:	20 e6       	ldi	r18, 0x60	; 96
    1bba:	35 e0       	ldi	r19, 0x05	; 5
    1bbc:	48 e3       	ldi	r20, 0x38	; 56
    1bbe:	60 e6       	ldi	r22, 0x60	; 96
    1bc0:	c7 01       	movw	r24, r14
    1bc2:	66 db       	rcall	.-2356   	; 0x1290 <_ZN9screenmem6stringEhhPKhPKc>
    1bc4:	f6 01       	movw	r30, r12
    1bc6:	e9 50       	subi	r30, 0x09	; 9
    1bc8:	ff 4f       	sbci	r31, 0xFF	; 255
    1bca:	80 81       	ld	r24, Z
    1bcc:	40 e1       	ldi	r20, 0x10	; 16
    1bce:	be 01       	movw	r22, r28
    1bd0:	90 e0       	ldi	r25, 0x00	; 0
    1bd2:	d4 d4       	rcall	.+2472   	; 0x257c <__itoa_ncheck>
    1bd4:	20 e6       	ldi	r18, 0x60	; 96
    1bd6:	35 e0       	ldi	r19, 0x05	; 5
    1bd8:	48 e3       	ldi	r20, 0x38	; 56
    1bda:	60 e7       	ldi	r22, 0x70	; 112
    1bdc:	c7 01       	movw	r24, r14
    1bde:	58 db       	rcall	.-2384   	; 0x1290 <_ZN9screenmem6stringEhhPKhPKc>
    1be0:	f6 01       	movw	r30, r12
    1be2:	e7 50       	subi	r30, 0x07	; 7
    1be4:	ff 4f       	sbci	r31, 0xFF	; 255
    1be6:	60 81       	ld	r22, Z
    1be8:	70 e0       	ldi	r23, 0x00	; 0
    1bea:	80 e0       	ldi	r24, 0x00	; 0
    1bec:	90 e0       	ldi	r25, 0x00	; 0
    1bee:	8e d3       	rcall	.+1820   	; 0x230c <__floatunsisf>
    1bf0:	20 e0       	ldi	r18, 0x00	; 0
    1bf2:	43 e0       	ldi	r20, 0x03	; 3
    1bf4:	a4 d4       	rcall	.+2376   	; 0x253e <dtostrf>
    1bf6:	0d e6       	ldi	r16, 0x6D	; 109
    1bf8:	11 e0       	ldi	r17, 0x01	; 1
    1bfa:	20 e6       	ldi	r18, 0x60	; 96
    1bfc:	35 e0       	ldi	r19, 0x05	; 5
    1bfe:	40 e0       	ldi	r20, 0x00	; 0
    1c00:	60 e0       	ldi	r22, 0x00	; 0
    1c02:	c7 01       	movw	r24, r14
    1c04:	45 db       	rcall	.-2422   	; 0x1290 <_ZN9screenmem6stringEhhPKhPKc>
    1c06:	8e 01       	movw	r16, r28
    1c08:	20 e6       	ldi	r18, 0x60	; 96
    1c0a:	35 e0       	ldi	r19, 0x05	; 5
    1c0c:	40 e0       	ldi	r20, 0x00	; 0
    1c0e:	60 e5       	ldi	r22, 0x50	; 80
    1c10:	c7 01       	movw	r24, r14
    1c12:	3e db       	rcall	.-2436   	; 0x1290 <_ZN9screenmem6stringEhhPKhPKc>
    1c14:	f6 01       	movw	r30, r12
    1c16:	e6 50       	subi	r30, 0x06	; 6
    1c18:	ff 4f       	sbci	r31, 0xFF	; 255
    1c1a:	60 81       	ld	r22, Z
    1c1c:	70 e0       	ldi	r23, 0x00	; 0
    1c1e:	80 e0       	ldi	r24, 0x00	; 0
    1c20:	90 e0       	ldi	r25, 0x00	; 0
    1c22:	74 d3       	rcall	.+1768   	; 0x230c <__floatunsisf>
    1c24:	20 e0       	ldi	r18, 0x00	; 0
    1c26:	43 e0       	ldi	r20, 0x03	; 3
    1c28:	8a d4       	rcall	.+2324   	; 0x253e <dtostrf>
    1c2a:	08 e7       	ldi	r16, 0x78	; 120
    1c2c:	11 e0       	ldi	r17, 0x01	; 1
    1c2e:	20 e6       	ldi	r18, 0x60	; 96
    1c30:	35 e0       	ldi	r19, 0x05	; 5
    1c32:	48 e0       	ldi	r20, 0x08	; 8
    1c34:	60 e0       	ldi	r22, 0x00	; 0
    1c36:	c7 01       	movw	r24, r14
    1c38:	2b db       	rcall	.-2474   	; 0x1290 <_ZN9screenmem6stringEhhPKhPKc>
    1c3a:	8e 01       	movw	r16, r28
    1c3c:	20 e6       	ldi	r18, 0x60	; 96
    1c3e:	35 e0       	ldi	r19, 0x05	; 5
    1c40:	48 e0       	ldi	r20, 0x08	; 8
    1c42:	60 e5       	ldi	r22, 0x50	; 80
    1c44:	c7 01       	movw	r24, r14
    1c46:	24 db       	rcall	.-2488   	; 0x1290 <_ZN9screenmem6stringEhhPKhPKc>
    1c48:	f6 01       	movw	r30, r12
    1c4a:	e8 50       	subi	r30, 0x08	; 8
    1c4c:	ff 4f       	sbci	r31, 0xFF	; 255
    1c4e:	60 81       	ld	r22, Z
    1c50:	70 e0       	ldi	r23, 0x00	; 0
    1c52:	80 e0       	ldi	r24, 0x00	; 0
    1c54:	90 e0       	ldi	r25, 0x00	; 0
    1c56:	5a d3       	rcall	.+1716   	; 0x230c <__floatunsisf>
    1c58:	20 e0       	ldi	r18, 0x00	; 0
    1c5a:	43 e0       	ldi	r20, 0x03	; 3
    1c5c:	70 d4       	rcall	.+2272   	; 0x253e <dtostrf>
    1c5e:	02 e8       	ldi	r16, 0x82	; 130
    1c60:	11 e0       	ldi	r17, 0x01	; 1
    1c62:	20 e6       	ldi	r18, 0x60	; 96
    1c64:	35 e0       	ldi	r19, 0x05	; 5
    1c66:	40 e1       	ldi	r20, 0x10	; 16
    1c68:	60 e0       	ldi	r22, 0x00	; 0
    1c6a:	c7 01       	movw	r24, r14
    1c6c:	11 db       	rcall	.-2526   	; 0x1290 <_ZN9screenmem6stringEhhPKhPKc>
    1c6e:	8e 01       	movw	r16, r28
    1c70:	20 e6       	ldi	r18, 0x60	; 96
    1c72:	35 e0       	ldi	r19, 0x05	; 5
    1c74:	40 e1       	ldi	r20, 0x10	; 16
    1c76:	60 e5       	ldi	r22, 0x50	; 80
    1c78:	c7 01       	movw	r24, r14
    1c7a:	0a db       	rcall	.-2540   	; 0x1290 <_ZN9screenmem6stringEhhPKhPKc>
    1c7c:	f6 01       	movw	r30, r12
    1c7e:	e5 50       	subi	r30, 0x05	; 5
    1c80:	ff 4f       	sbci	r31, 0xFF	; 255
    1c82:	60 81       	ld	r22, Z
    1c84:	70 e0       	ldi	r23, 0x00	; 0
    1c86:	80 e0       	ldi	r24, 0x00	; 0
    1c88:	90 e0       	ldi	r25, 0x00	; 0
    1c8a:	40 d3       	rcall	.+1664   	; 0x230c <__floatunsisf>
    1c8c:	20 e0       	ldi	r18, 0x00	; 0
    1c8e:	43 e0       	ldi	r20, 0x03	; 3
    1c90:	56 d4       	rcall	.+2220   	; 0x253e <dtostrf>
    1c92:	0b e8       	ldi	r16, 0x8B	; 139
    1c94:	11 e0       	ldi	r17, 0x01	; 1
    1c96:	20 e6       	ldi	r18, 0x60	; 96
    1c98:	35 e0       	ldi	r19, 0x05	; 5
    1c9a:	48 e1       	ldi	r20, 0x18	; 24
    1c9c:	60 e0       	ldi	r22, 0x00	; 0
    1c9e:	c7 01       	movw	r24, r14
    1ca0:	f7 da       	rcall	.-2578   	; 0x1290 <_ZN9screenmem6stringEhhPKhPKc>
    1ca2:	8e 01       	movw	r16, r28
    1ca4:	20 e6       	ldi	r18, 0x60	; 96
    1ca6:	35 e0       	ldi	r19, 0x05	; 5
    1ca8:	48 e1       	ldi	r20, 0x18	; 24
    1caa:	60 e5       	ldi	r22, 0x50	; 80
    1cac:	c7 01       	movw	r24, r14
    1cae:	f0 da       	rcall	.-2592   	; 0x1290 <_ZN9screenmem6stringEhhPKhPKc>
    1cb0:	f6 01       	movw	r30, r12
    1cb2:	e4 50       	subi	r30, 0x04	; 4
    1cb4:	ff 4f       	sbci	r31, 0xFF	; 255
    1cb6:	60 81       	ld	r22, Z
    1cb8:	70 e0       	ldi	r23, 0x00	; 0
    1cba:	80 e0       	ldi	r24, 0x00	; 0
    1cbc:	90 e0       	ldi	r25, 0x00	; 0
    1cbe:	26 d3       	rcall	.+1612   	; 0x230c <__floatunsisf>
    1cc0:	20 e0       	ldi	r18, 0x00	; 0
    1cc2:	43 e0       	ldi	r20, 0x03	; 3
    1cc4:	3c d4       	rcall	.+2168   	; 0x253e <dtostrf>
    1cc6:	08 e9       	ldi	r16, 0x98	; 152
    1cc8:	11 e0       	ldi	r17, 0x01	; 1
    1cca:	20 e6       	ldi	r18, 0x60	; 96
    1ccc:	35 e0       	ldi	r19, 0x05	; 5
    1cce:	40 e2       	ldi	r20, 0x20	; 32
    1cd0:	60 e0       	ldi	r22, 0x00	; 0
    1cd2:	c7 01       	movw	r24, r14
    1cd4:	dd da       	rcall	.-2630   	; 0x1290 <_ZN9screenmem6stringEhhPKhPKc>
    1cd6:	8e 01       	movw	r16, r28
    1cd8:	20 e6       	ldi	r18, 0x60	; 96
    1cda:	35 e0       	ldi	r19, 0x05	; 5
    1cdc:	40 e2       	ldi	r20, 0x20	; 32
    1cde:	60 e5       	ldi	r22, 0x50	; 80
    1ce0:	c7 01       	movw	r24, r14
    1ce2:	d6 da       	rcall	.-2644   	; 0x1290 <_ZN9screenmem6stringEhhPKhPKc>
    1ce4:	df 91       	pop	r29
    1ce6:	cf 91       	pop	r28
    1ce8:	1f 91       	pop	r17
    1cea:	0f 91       	pop	r16
    1cec:	ff 90       	pop	r15
    1cee:	ef 90       	pop	r14
    1cf0:	df 90       	pop	r13
    1cf2:	cf 90       	pop	r12
    1cf4:	08 95       	ret

00001cf6 <_ZN12CAN_screen036updateER12CAN_TwizplayR9screenmem>:
    1cf6:	3f 92       	push	r3
    1cf8:	4f 92       	push	r4
    1cfa:	5f 92       	push	r5
    1cfc:	6f 92       	push	r6
    1cfe:	7f 92       	push	r7
    1d00:	8f 92       	push	r8
    1d02:	9f 92       	push	r9
    1d04:	af 92       	push	r10
    1d06:	bf 92       	push	r11
    1d08:	cf 92       	push	r12
    1d0a:	df 92       	push	r13
    1d0c:	ef 92       	push	r14
    1d0e:	ff 92       	push	r15
    1d10:	0f 93       	push	r16
    1d12:	1f 93       	push	r17
    1d14:	cf 93       	push	r28
    1d16:	df 93       	push	r29
    1d18:	cd b7       	in	r28, 0x3d	; 61
    1d1a:	de b7       	in	r29, 0x3e	; 62
    1d1c:	2a 97       	sbiw	r28, 0x0a	; 10
    1d1e:	0f b6       	in	r0, 0x3f	; 63
    1d20:	f8 94       	cli
    1d22:	de bf       	out	0x3e, r29	; 62
    1d24:	0f be       	out	0x3f, r0	; 63
    1d26:	cd bf       	out	0x3d, r28	; 61
    1d28:	4a 01       	movw	r8, r20
    1d2a:	3b 01       	movw	r6, r22
    1d2c:	81 e2       	ldi	r24, 0x21	; 33
    1d2e:	68 0e       	add	r6, r24
    1d30:	71 1c       	adc	r7, r1
    1d32:	a1 2c       	mov	r10, r1
    1d34:	b1 2c       	mov	r11, r1
    1d36:	31 2c       	mov	r3, r1
    1d38:	39 c0       	rjmp	.+114    	; 0x1dac <_ZN12CAN_screen036updateER12CAN_TwizplayR9screenmem+0xb6>
    1d3a:	f7 01       	movw	r30, r14
    1d3c:	31 97       	sbiw	r30, 0x01	; 1
    1d3e:	60 81       	ld	r22, Z
    1d40:	70 e0       	ldi	r23, 0x00	; 0
    1d42:	76 2f       	mov	r23, r22
    1d44:	66 27       	eor	r22, r22
    1d46:	f7 01       	movw	r30, r14
    1d48:	80 81       	ld	r24, Z
    1d4a:	68 0f       	add	r22, r24
    1d4c:	71 1d       	adc	r23, r1
    1d4e:	07 2e       	mov	r0, r23
    1d50:	00 0c       	add	r0, r0
    1d52:	88 0b       	sbc	r24, r24
    1d54:	99 0b       	sbc	r25, r25
    1d56:	dc d2       	rcall	.+1464   	; 0x2310 <__floatsisf>
    1d58:	20 e0       	ldi	r18, 0x00	; 0
    1d5a:	30 e0       	ldi	r19, 0x00	; 0
    1d5c:	4a e7       	ldi	r20, 0x7A	; 122
    1d5e:	54 e4       	ldi	r21, 0x44	; 68
    1d60:	6d d2       	rcall	.+1242   	; 0x223c <__divsf3>
    1d62:	8e 01       	movw	r16, r28
    1d64:	0f 5f       	subi	r16, 0xFF	; 255
    1d66:	1f 4f       	sbci	r17, 0xFF	; 255
    1d68:	23 e0       	ldi	r18, 0x03	; 3
    1d6a:	41 e0       	ldi	r20, 0x01	; 1
    1d6c:	e8 d3       	rcall	.+2000   	; 0x253e <dtostrf>
    1d6e:	24 e1       	ldi	r18, 0x14	; 20
    1d70:	35 e0       	ldi	r19, 0x05	; 5
    1d72:	44 2d       	mov	r20, r4
    1d74:	65 2d       	mov	r22, r5
    1d76:	c4 01       	movw	r24, r8
    1d78:	8b da       	rcall	.-2794   	; 0x1290 <_ZN9screenmem6stringEhhPKhPKc>
    1d7a:	f9 e6       	ldi	r31, 0x69	; 105
    1d7c:	5f 16       	cp	r5, r31
    1d7e:	61 f0       	breq	.+24     	; 0x1d98 <_ZN12CAN_screen036updateER12CAN_TwizplayR9screenmem+0xa2>
    1d80:	8f ef       	ldi	r24, 0xFF	; 255
    1d82:	c8 1a       	sub	r12, r24
    1d84:	d8 0a       	sbc	r13, r24
    1d86:	e2 e0       	ldi	r30, 0x02	; 2
    1d88:	ee 0e       	add	r14, r30
    1d8a:	f1 1c       	adc	r15, r1
    1d8c:	f5 e1       	ldi	r31, 0x15	; 21
    1d8e:	5f 0e       	add	r5, r31
    1d90:	8e e3       	ldi	r24, 0x3E	; 62
    1d92:	c8 16       	cp	r12, r24
    1d94:	d1 04       	cpc	r13, r1
    1d96:	89 f6       	brne	.-94     	; 0x1d3a <_ZN12CAN_screen036updateER12CAN_TwizplayR9screenmem+0x44>
    1d98:	e6 e0       	ldi	r30, 0x06	; 6
    1d9a:	ae 0e       	add	r10, r30
    1d9c:	b1 1c       	adc	r11, r1
    1d9e:	fc e0       	ldi	r31, 0x0C	; 12
    1da0:	6f 0e       	add	r6, r31
    1da2:	71 1c       	adc	r7, r1
    1da4:	82 e4       	ldi	r24, 0x42	; 66
    1da6:	a8 16       	cp	r10, r24
    1da8:	b1 04       	cpc	r11, r1
    1daa:	49 f0       	breq	.+18     	; 0x1dbe <_ZN12CAN_screen036updateER12CAN_TwizplayR9screenmem+0xc8>
    1dac:	ee e3       	ldi	r30, 0x3E	; 62
    1dae:	ae 16       	cp	r10, r30
    1db0:	b1 04       	cpc	r11, r1
    1db2:	94 f7       	brge	.-28     	; 0x1d98 <_ZN12CAN_screen036updateER12CAN_TwizplayR9screenmem+0xa2>
    1db4:	4a 2c       	mov	r4, r10
    1db6:	73 01       	movw	r14, r6
    1db8:	65 01       	movw	r12, r10
    1dba:	53 2c       	mov	r5, r3
    1dbc:	be cf       	rjmp	.-132    	; 0x1d3a <_ZN12CAN_screen036updateER12CAN_TwizplayR9screenmem+0x44>
    1dbe:	2a 96       	adiw	r28, 0x0a	; 10
    1dc0:	0f b6       	in	r0, 0x3f	; 63
    1dc2:	f8 94       	cli
    1dc4:	de bf       	out	0x3e, r29	; 62
    1dc6:	0f be       	out	0x3f, r0	; 63
    1dc8:	cd bf       	out	0x3d, r28	; 61
    1dca:	df 91       	pop	r29
    1dcc:	cf 91       	pop	r28
    1dce:	1f 91       	pop	r17
    1dd0:	0f 91       	pop	r16
    1dd2:	ff 90       	pop	r15
    1dd4:	ef 90       	pop	r14
    1dd6:	df 90       	pop	r13
    1dd8:	cf 90       	pop	r12
    1dda:	bf 90       	pop	r11
    1ddc:	af 90       	pop	r10
    1dde:	9f 90       	pop	r9
    1de0:	8f 90       	pop	r8
    1de2:	7f 90       	pop	r7
    1de4:	6f 90       	pop	r6
    1de6:	5f 90       	pop	r5
    1de8:	4f 90       	pop	r4
    1dea:	3f 90       	pop	r3
    1dec:	08 95       	ret

00001dee <main>:
uint8_t Act_StreamSIZE;

int main(void)
{
   
	DDRB |= (1<<PB0);  // Relays on Pin PB0 as Output
    1dee:	20 9a       	sbi	0x04, 0	; 4
	PORTB |= (1<<PB0); // switch Relays on	
    1df0:	28 9a       	sbi	0x05, 0	; 5

	// initialize the Timer for fast scheduler 10ms
	TCCR1A = 0;
    1df2:	10 92 80 00 	sts	0x0080, r1
	TCCR1B |= _BV (1);       // CC11 setzt prescaler 8
    1df6:	e1 e8       	ldi	r30, 0x81	; 129
    1df8:	f0 e0       	ldi	r31, 0x00	; 0
    1dfa:	80 81       	ld	r24, Z
    1dfc:	82 60       	ori	r24, 0x02	; 2
    1dfe:	80 83       	st	Z, r24
	TCCR1B |= _BV (3);       // WGM12
    1e00:	80 81       	ld	r24, Z
    1e02:	88 60       	ori	r24, 0x08	; 8
    1e04:	80 83       	st	Z, r24
	OCR1A = 20000;           // Compare Wert 20000-Prescale 8 = 10ms
    1e06:	80 e2       	ldi	r24, 0x20	; 32
    1e08:	9e e4       	ldi	r25, 0x4E	; 78
    1e0a:	90 93 89 00 	sts	0x0089, r25
    1e0e:	80 93 88 00 	sts	0x0088, r24
	TIMSK1 |= _BV (OCIE1A);  // Interrupt fr Compare Timer 1 freigeben
    1e12:	ef e6       	ldi	r30, 0x6F	; 111
    1e14:	f0 e0       	ldi	r31, 0x00	; 0
    1e16:	80 81       	ld	r24, Z
    1e18:	82 60       	ori	r24, 0x02	; 2
    1e1a:	80 83       	st	Z, r24


    // initialize timer0 in PWM mode for back light
    TCCR0A |= (1<<WGM00)|(1<<COM0A1)|(1<<WGM01)|(1<<CS00);
    1e1c:	84 b5       	in	r24, 0x24	; 36
    1e1e:	89 66       	ori	r24, 0x69	; 105
    1e20:	84 bd       	out	0x24, r24	; 36
    // make sure to make OC0 pin (pin PB3 for AT90CAN128) as output pin
    DDRB |= (1<<PB7); 
    1e22:	27 9a       	sbi	0x04, 7	; 4
	OCR0A =  50; // brightness for back light.
    1e24:	82 e3       	ldi	r24, 0x32	; 50
    1e26:	87 bd       	out	0x27, r24	; 39

	DOG.init();
    1e28:	83 ee       	ldi	r24, 0xE3	; 227
    1e2a:	95 e0       	ldi	r25, 0x05	; 5
    1e2c:	0e 94 f4 04 	call	0x9e8	; 0x9e8 <_ZN9dog_7565R4initEv>
    CAN1.init();
    1e30:	84 ee       	ldi	r24, 0xE4	; 228
    1e32:	95 e0       	ldi	r25, 0x05	; 5
    1e34:	0e 94 39 05 	call	0xa72	; 0xa72 <_ZN12CAN_Twizplay4initEv>
    KEY01.init(&Taster1, Taster1_dir, Taster1_pin);
    1e38:	87 b1       	in	r24, 0x07	; 7
------------------------------*/
    void key::init        (volatile uint8_t *in_port, uint8_t dir_port, uint8_t pin)
	{
			/* Set input direction switches  */
			dir_port &= ~(1<<pin);
			port_nr = in_port;
    1e3a:	ea eb       	ldi	r30, 0xBA	; 186
    1e3c:	f1 e0       	ldi	r31, 0x01	; 1
    1e3e:	86 e2       	ldi	r24, 0x26	; 38
    1e40:	90 e0       	ldi	r25, 0x00	; 0
    1e42:	97 83       	std	Z+7, r25	; 0x07
    1e44:	86 83       	std	Z+6, r24	; 0x06
			pin_number = pin;
    1e46:	25 e0       	ldi	r18, 0x05	; 5
    1e48:	22 83       	std	Z+2, r18	; 0x02
    KEY02.init(&Taster2, Taster2_dir, Taster2_pin);
    1e4a:	27 b1       	in	r18, 0x07	; 7
------------------------------*/
    void key::init        (volatile uint8_t *in_port, uint8_t dir_port, uint8_t pin)
	{
			/* Set input direction switches  */
			dir_port &= ~(1<<pin);
			port_nr = in_port;
    1e4c:	e2 eb       	ldi	r30, 0xB2	; 178
    1e4e:	f1 e0       	ldi	r31, 0x01	; 1
    1e50:	97 83       	std	Z+7, r25	; 0x07
    1e52:	86 83       	std	Z+6, r24	; 0x06
			pin_number = pin;
    1e54:	26 e0       	ldi	r18, 0x06	; 6
    1e56:	22 83       	std	Z+2, r18	; 0x02
    KEY03.init(&Taster3, Taster3_dir, Taster3_pin);
    1e58:	27 b1       	in	r18, 0x07	; 7
------------------------------*/
    void key::init        (volatile uint8_t *in_port, uint8_t dir_port, uint8_t pin)
	{
			/* Set input direction switches  */
			dir_port &= ~(1<<pin);
			port_nr = in_port;
    1e5a:	ea ea       	ldi	r30, 0xAA	; 170
    1e5c:	f1 e0       	ldi	r31, 0x01	; 1
    1e5e:	97 83       	std	Z+7, r25	; 0x07
    1e60:	86 83       	std	Z+6, r24	; 0x06
			pin_number = pin;
    1e62:	87 e0       	ldi	r24, 0x07	; 7
    1e64:	82 83       	std	Z+2, r24	; 0x02
	EEPROM01.init();
	
    MEM01.picture(0,0,zoe_logo_inv);
    1e66:	22 e1       	ldi	r18, 0x12	; 18
    1e68:	31 e0       	ldi	r19, 0x01	; 1
    1e6a:	40 e0       	ldi	r20, 0x00	; 0
    1e6c:	60 e0       	ldi	r22, 0x00	; 0
    1e6e:	83 ee       	ldi	r24, 0xE3	; 227
    1e70:	91 e0       	ldi	r25, 0x01	; 1
    1e72:	ed da       	rcall	.-2598   	; 0x144e <_ZN9screenmem7pictureEhhPKh>
	MEM01.send(DOG);
    1e74:	63 ee       	ldi	r22, 0xE3	; 227
    1e76:	75 e0       	ldi	r23, 0x05	; 5
    1e78:	83 ee       	ldi	r24, 0xE3	; 227
    1e7a:	91 e0       	ldi	r25, 0x01	; 1
    1e7c:	71 d9       	rcall	.-3358   	; 0x1160 <_ZN9screenmem4sendER9dog_7565R>
	#else
		//round up by default
		__ticks_dc = (uint32_t)(ceil(fabs(__tmp)));
	#endif

	__builtin_avr_delay_cycles(__ticks_dc);
    1e7e:	2f ef       	ldi	r18, 0xFF	; 255
    1e80:	87 ea       	ldi	r24, 0xA7	; 167
    1e82:	91 e6       	ldi	r25, 0x61	; 97
    1e84:	21 50       	subi	r18, 0x01	; 1
    1e86:	80 40       	sbci	r24, 0x00	; 0
    1e88:	90 40       	sbci	r25, 0x00	; 0
    1e8a:	e1 f7       	brne	.-8      	; 0x1e84 <main+0x96>
    1e8c:	00 c0       	rjmp	.+0      	; 0x1e8e <main+0xa0>
    1e8e:	00 00       	nop
	
	_delay_ms(2000);
    MEM01.clear();
    1e90:	83 ee       	ldi	r24, 0xE3	; 227
    1e92:	91 e0       	ldi	r25, 0x01	; 1
    1e94:	4c db       	rcall	.-2408   	; 0x152e <_ZN9screenmem5clearEv>
	screen_nr = 1;
    1e96:	81 e0       	ldi	r24, 0x01	; 1
    1e98:	80 93 a6 01 	sts	0x01A6, r24
	sei ();                  // Interrupt release global
    1e9c:	78 94       	sei
		return key::key_state;
	}

	uint8_t key::get_duration()
	{
		return key::duration;
    1e9e:	0a ea       	ldi	r16, 0xAA	; 170
    1ea0:	11 e0       	ldi	r17, 0x01	; 1
    1ea2:	ca eb       	ldi	r28, 0xBA	; 186
    1ea4:	d1 e0       	ldi	r29, 0x01	; 1
			switch (screen_nr)
			{
				case 1: SCR01.update(CAN1,MEM01);
				break;
				case 2: SCR02.update(CAN1,MEM01);
  						if (!(count_100ms%50) && (CAN1.TP_status == 0 || CAN1.TP_status == 0xFF))  // every 5 Sec.
    1ea6:	0f 2e       	mov	r0, r31
    1ea8:	f9 e2       	ldi	r31, 0x29	; 41
    1eaa:	9f 2e       	mov	r9, r31
    1eac:	f0 2d       	mov	r31, r0
    1eae:	0f 2e       	mov	r0, r31
    1eb0:	f2 e3       	ldi	r31, 0x32	; 50
    1eb2:	af 2e       	mov	r10, r31
    1eb4:	f0 2d       	mov	r31, r0
							CAN1.init_TP(tpCell1);
							Ptr_Stream = CAN1.TP_stream1; // Ptr = Array or Ptr = &Array[0] ... it is the same! :)
							Act_StreamSIZE = SzCell1;
							CAN1.Can_start_TP(tpCell1);
						}
						if (CAN1.TP_status == 1)
    1eb6:	0f 2e       	mov	r0, r31
    1eb8:	f0 ee       	ldi	r31, 0xE0	; 224
    1eba:	ef 2e       	mov	r14, r31
    1ebc:	f6 e0       	ldi	r31, 0x06	; 6
    1ebe:	ff 2e       	mov	r15, r31
    1ec0:	f0 2d       	mov	r31, r0
				break;
				case 2: SCR02.update(CAN1,MEM01);
  						if (!(count_100ms%50) && (CAN1.TP_status == 0 || CAN1.TP_status == 0xFF))  // every 5 Sec.
						{
							CAN1.init_TP(tpCell1);
							Ptr_Stream = CAN1.TP_stream1; // Ptr = Array or Ptr = &Array[0] ... it is the same! :)
    1ec2:	0f 2e       	mov	r0, r31
    1ec4:	f4 e0       	ldi	r31, 0x04	; 4
    1ec6:	cf 2e       	mov	r12, r31
    1ec8:	f6 e0       	ldi	r31, 0x06	; 6
    1eca:	df 2e       	mov	r13, r31
    1ecc:	f0 2d       	mov	r31, r0
							Act_StreamSIZE = SzCell1;
    1ece:	0f 2e       	mov	r0, r31
    1ed0:	fc e7       	ldi	r31, 0x7C	; 124
    1ed2:	8f 2e       	mov	r8, r31
    1ed4:	f0 2d       	mov	r31, r0
							CAN1.Can_FlowControl_TP(tpCell1);
						}
				break;
				case 3: SCR03.update(CAN1,MEM01);
				break;
				default: screen_nr = 1;
    1ed6:	bb 24       	eor	r11, r11
    1ed8:	b3 94       	inc	r11
	screen_nr = 1;
	sei ();                  // Interrupt release global
	
   while (1)
   {
		if (old_count100ms != count_100ms)
    1eda:	80 91 a9 01 	lds	r24, 0x01A9
    1ede:	90 91 a8 01 	lds	r25, 0x01A8
    1ee2:	98 17       	cp	r25, r24
    1ee4:	09 f4       	brne	.+2      	; 0x1ee8 <main+0xfa>
    1ee6:	88 c0       	rjmp	.+272    	; 0x1ff8 <main+0x20a>
		{
			old_count100ms = count_100ms;
    1ee8:	80 93 a8 01 	sts	0x01A8, r24
			switch (screen_nr)
    1eec:	80 91 a6 01 	lds	r24, 0x01A6
    1ef0:	82 30       	cpi	r24, 0x02	; 2
    1ef2:	71 f0       	breq	.+28     	; 0x1f10 <main+0x122>
    1ef4:	83 30       	cpi	r24, 0x03	; 3
    1ef6:	09 f4       	brne	.+2      	; 0x1efa <main+0x10c>
    1ef8:	3e c0       	rjmp	.+124    	; 0x1f76 <main+0x188>
    1efa:	81 30       	cpi	r24, 0x01	; 1
    1efc:	09 f0       	breq	.+2      	; 0x1f00 <main+0x112>
    1efe:	43 c0       	rjmp	.+134    	; 0x1f86 <main+0x198>
			{
				case 1: SCR01.update(CAN1,MEM01);
    1f00:	43 ee       	ldi	r20, 0xE3	; 227
    1f02:	51 e0       	ldi	r21, 0x01	; 1
    1f04:	64 ee       	ldi	r22, 0xE4	; 228
    1f06:	75 e0       	ldi	r23, 0x05	; 5
    1f08:	8d ec       	ldi	r24, 0xCD	; 205
    1f0a:	91 e0       	ldi	r25, 0x01	; 1
    1f0c:	a9 db       	rcall	.-2222   	; 0x1660 <_ZN12CAN_screen016updateER12CAN_TwizplayR9screenmem>
				break;
    1f0e:	3d c0       	rjmp	.+122    	; 0x1f8a <main+0x19c>
				case 2: SCR02.update(CAN1,MEM01);
    1f10:	43 ee       	ldi	r20, 0xE3	; 227
    1f12:	51 e0       	ldi	r21, 0x01	; 1
    1f14:	64 ee       	ldi	r22, 0xE4	; 228
    1f16:	75 e0       	ldi	r23, 0x05	; 5
    1f18:	83 ec       	ldi	r24, 0xC3	; 195
    1f1a:	91 e0       	ldi	r25, 0x01	; 1
    1f1c:	05 dd       	rcall	.-1526   	; 0x1928 <_ZN12CAN_screen026updateER12CAN_TwizplayR9screenmem>
  						if (!(count_100ms%50) && (CAN1.TP_status == 0 || CAN1.TP_status == 0xFF))  // every 5 Sec.
    1f1e:	80 91 a9 01 	lds	r24, 0x01A9
    1f22:	89 9d       	mul	r24, r9
    1f24:	91 2d       	mov	r25, r1
    1f26:	11 24       	eor	r1, r1
    1f28:	96 95       	lsr	r25
    1f2a:	96 95       	lsr	r25
    1f2c:	96 95       	lsr	r25
    1f2e:	9a 9d       	mul	r25, r10
    1f30:	80 19       	sub	r24, r0
    1f32:	11 24       	eor	r1, r1
    1f34:	81 11       	cpse	r24, r1
    1f36:	15 c0       	rjmp	.+42     	; 0x1f62 <main+0x174>
    1f38:	f7 01       	movw	r30, r14
    1f3a:	80 81       	ld	r24, Z
    1f3c:	81 50       	subi	r24, 0x01	; 1
    1f3e:	8e 3f       	cpi	r24, 0xFE	; 254
    1f40:	80 f0       	brcs	.+32     	; 0x1f62 <main+0x174>
						{
							CAN1.init_TP(tpCell1);
    1f42:	60 e0       	ldi	r22, 0x00	; 0
    1f44:	84 ee       	ldi	r24, 0xE4	; 228
    1f46:	95 e0       	ldi	r25, 0x05	; 5
    1f48:	0e 94 cc 05 	call	0xb98	; 0xb98 <_ZN12CAN_Twizplay7init_TPEh>
							Ptr_Stream = CAN1.TP_stream1; // Ptr = Array or Ptr = &Array[0] ... it is the same! :)
    1f4c:	d0 92 a4 01 	sts	0x01A4, r13
    1f50:	c0 92 a3 01 	sts	0x01A3, r12
							Act_StreamSIZE = SzCell1;
    1f54:	80 92 a2 01 	sts	0x01A2, r8
							CAN1.Can_start_TP(tpCell1);
    1f58:	60 e0       	ldi	r22, 0x00	; 0
    1f5a:	84 ee       	ldi	r24, 0xE4	; 228
    1f5c:	95 e0       	ldi	r25, 0x05	; 5
    1f5e:	0e 94 69 06 	call	0xcd2	; 0xcd2 <_ZN12CAN_Twizplay12Can_start_TPEh>
						}
						if (CAN1.TP_status == 1)
    1f62:	f7 01       	movw	r30, r14
    1f64:	80 81       	ld	r24, Z
    1f66:	81 30       	cpi	r24, 0x01	; 1
    1f68:	81 f4       	brne	.+32     	; 0x1f8a <main+0x19c>
						{
							CAN1.Can_FlowControl_TP(tpCell1);
    1f6a:	60 e0       	ldi	r22, 0x00	; 0
    1f6c:	84 ee       	ldi	r24, 0xE4	; 228
    1f6e:	95 e0       	ldi	r25, 0x05	; 5
    1f70:	0e 94 a2 06 	call	0xd44	; 0xd44 <_ZN12CAN_Twizplay18Can_FlowControl_TPEh>
    1f74:	0a c0       	rjmp	.+20     	; 0x1f8a <main+0x19c>
						}
				break;
				case 3: SCR03.update(CAN1,MEM01);
    1f76:	43 ee       	ldi	r20, 0xE3	; 227
    1f78:	51 e0       	ldi	r21, 0x01	; 1
    1f7a:	64 ee       	ldi	r22, 0xE4	; 228
    1f7c:	75 e0       	ldi	r23, 0x05	; 5
    1f7e:	82 ec       	ldi	r24, 0xC2	; 194
    1f80:	91 e0       	ldi	r25, 0x01	; 1
    1f82:	b9 de       	rcall	.-654    	; 0x1cf6 <_ZN12CAN_screen036updateER12CAN_TwizplayR9screenmem>
				break;
    1f84:	02 c0       	rjmp	.+4      	; 0x1f8a <main+0x19c>
				default: screen_nr = 1;
    1f86:	b0 92 a6 01 	sts	0x01A6, r11
				break;
			}
			
			if 	((screen_nr!=old_screen_nr) &&  !(KEY01.get() || KEY03.get() ))		
    1f8a:	80 91 a6 01 	lds	r24, 0x01A6
    1f8e:	90 91 a5 01 	lds	r25, 0x01A5
    1f92:	89 17       	cp	r24, r25
    1f94:	41 f0       	breq	.+16     	; 0x1fa6 <main+0x1b8>
    1f96:	98 81       	ld	r25, Y
    1f98:	91 11       	cpse	r25, r1
    1f9a:	1c c0       	rjmp	.+56     	; 0x1fd4 <main+0x1e6>
    1f9c:	f8 01       	movw	r30, r16
    1f9e:	90 81       	ld	r25, Z
    1fa0:	91 11       	cpse	r25, r1
    1fa2:	18 c0       	rjmp	.+48     	; 0x1fd4 <main+0x1e6>
    1fa4:	2e c0       	rjmp	.+92     	; 0x2002 <main+0x214>
			{
				old_screen_nr = screen_nr;
			}
			if 	(screen_nr == old_screen_nr)
			{
				if (KEY01.get())
    1fa6:	88 81       	ld	r24, Y
    1fa8:	88 23       	and	r24, r24
    1faa:	41 f0       	breq	.+16     	; 0x1fbc <main+0x1ce>
				{
					MEM01.clear();
    1fac:	83 ee       	ldi	r24, 0xE3	; 227
    1fae:	91 e0       	ldi	r25, 0x01	; 1
    1fb0:	be da       	rcall	.-2692   	; 0x152e <_ZN9screenmem5clearEv>
					screen_nr++;
    1fb2:	80 91 a6 01 	lds	r24, 0x01A6
    1fb6:	8f 5f       	subi	r24, 0xFF	; 255
    1fb8:	80 93 a6 01 	sts	0x01A6, r24
				}
				if (KEY03.get())
    1fbc:	f8 01       	movw	r30, r16
    1fbe:	80 81       	ld	r24, Z
    1fc0:	88 23       	and	r24, r24
    1fc2:	41 f0       	breq	.+16     	; 0x1fd4 <main+0x1e6>
				{
					MEM01.clear();
    1fc4:	83 ee       	ldi	r24, 0xE3	; 227
    1fc6:	91 e0       	ldi	r25, 0x01	; 1
    1fc8:	b2 da       	rcall	.-2716   	; 0x152e <_ZN9screenmem5clearEv>
					screen_nr--;
    1fca:	80 91 a6 01 	lds	r24, 0x01A6
    1fce:	81 50       	subi	r24, 0x01	; 1
    1fd0:	80 93 a6 01 	sts	0x01A6, r24
				}
			}
			if (KEY03.get_duration()>0) OCR0A-=5;
    1fd4:	f8 01       	movw	r30, r16
    1fd6:	83 81       	ldd	r24, Z+3	; 0x03
    1fd8:	88 23       	and	r24, r24
    1fda:	19 f0       	breq	.+6      	; 0x1fe2 <main+0x1f4>
    1fdc:	87 b5       	in	r24, 0x27	; 39
    1fde:	85 50       	subi	r24, 0x05	; 5
    1fe0:	87 bd       	out	0x27, r24	; 39
			if (KEY01.get_duration()>0) OCR0A+=5;
    1fe2:	8b 81       	ldd	r24, Y+3	; 0x03
    1fe4:	88 23       	and	r24, r24
    1fe6:	19 f0       	breq	.+6      	; 0x1fee <main+0x200>
    1fe8:	87 b5       	in	r24, 0x27	; 39
    1fea:	8b 5f       	subi	r24, 0xFB	; 251
    1fec:	87 bd       	out	0x27, r24	; 39
			
			MEM01.send(DOG);
    1fee:	63 ee       	ldi	r22, 0xE3	; 227
    1ff0:	75 e0       	ldi	r23, 0x05	; 5
    1ff2:	83 ee       	ldi	r24, 0xE3	; 227
    1ff4:	91 e0       	ldi	r25, 0x01	; 1
    1ff6:	b4 d8       	rcall	.-3736   	; 0x1160 <_ZN9screenmem4sendER9dog_7565R>
	#else
		//round up by default
		__ticks_dc = (uint32_t)(ceil(fabs(__tmp)));
	#endif

	__builtin_avr_delay_cycles(__ticks_dc);
    1ff8:	f5 e0       	ldi	r31, 0x05	; 5
    1ffa:	fa 95       	dec	r31
    1ffc:	f1 f7       	brne	.-4      	; 0x1ffa <main+0x20c>
    1ffe:	00 00       	nop
    2000:	6c cf       	rjmp	.-296    	; 0x1eda <main+0xec>
				break;
			}
			
			if 	((screen_nr!=old_screen_nr) &&  !(KEY01.get() || KEY03.get() ))		
			{
				old_screen_nr = screen_nr;
    2002:	80 93 a5 01 	sts	0x01A5, r24
    2006:	cf cf       	rjmp	.-98     	; 0x1fa6 <main+0x1b8>

00002008 <__vector_12>:
    _delay_us(1);
   }
}

ISR(TIMER1_COMPA_vect)
{
    2008:	1f 92       	push	r1
    200a:	0f 92       	push	r0
    200c:	0f b6       	in	r0, 0x3f	; 63
    200e:	0f 92       	push	r0
    2010:	11 24       	eor	r1, r1
    2012:	0b b6       	in	r0, 0x3b	; 59
    2014:	0f 92       	push	r0
    2016:	2f 93       	push	r18
    2018:	3f 93       	push	r19
    201a:	4f 93       	push	r20
    201c:	5f 93       	push	r21
    201e:	6f 93       	push	r22
    2020:	7f 93       	push	r23
    2022:	8f 93       	push	r24
    2024:	9f 93       	push	r25
    2026:	af 93       	push	r26
    2028:	bf 93       	push	r27
    202a:	ef 93       	push	r30
    202c:	ff 93       	push	r31
              CAN1.Can_rx();
    202e:	84 ee       	ldi	r24, 0xE4	; 228
    2030:	95 e0       	ldi	r25, 0x05	; 5
    2032:	0e 94 78 07 	call	0xef0	; 0xef0 <_ZN12CAN_Twizplay6Can_rxEv>
			  KEY01.update(); 
    2036:	8a eb       	ldi	r24, 0xBA	; 186
    2038:	91 e0       	ldi	r25, 0x01	; 1
    203a:	0e 94 71 04 	call	0x8e2	; 0x8e2 <_ZN3key6updateEv>
			  KEY02.update();
    203e:	82 eb       	ldi	r24, 0xB2	; 178
    2040:	91 e0       	ldi	r25, 0x01	; 1
    2042:	0e 94 71 04 	call	0x8e2	; 0x8e2 <_ZN3key6updateEv>
			  KEY03.update();
    2046:	8a ea       	ldi	r24, 0xAA	; 170
    2048:	91 e0       	ldi	r25, 0x01	; 1
    204a:	0e 94 71 04 	call	0x8e2	; 0x8e2 <_ZN3key6updateEv>
			  SCR01.update10ms(CAN1);
    204e:	64 ee       	ldi	r22, 0xE4	; 228
    2050:	75 e0       	ldi	r23, 0x05	; 5
    2052:	8d ec       	ldi	r24, 0xCD	; 205
    2054:	91 e0       	ldi	r25, 0x01	; 1
    2056:	72 da       	rcall	.-2844   	; 0x153c <_ZN12CAN_screen0110update10msER12CAN_Twizplay>
		  
	  		  count_10ms++;
    2058:	80 91 a7 01 	lds	r24, 0x01A7
    205c:	8f 5f       	subi	r24, 0xFF	; 255
			  if (count_10ms == 10)
    205e:	8a 30       	cpi	r24, 0x0A	; 10
    2060:	19 f0       	breq	.+6      	; 0x2068 <__vector_12+0x60>
			  KEY01.update(); 
			  KEY02.update();
			  KEY03.update();
			  SCR01.update10ms(CAN1);
		  
	  		  count_10ms++;
    2062:	80 93 a7 01 	sts	0x01A7, r24
    2066:	07 c0       	rjmp	.+14     	; 0x2076 <__vector_12+0x6e>
			  if (count_10ms == 10)
			  {
				  count_10ms = 0;
    2068:	10 92 a7 01 	sts	0x01A7, r1
				  count_100ms++;
    206c:	80 91 a9 01 	lds	r24, 0x01A9
    2070:	8f 5f       	subi	r24, 0xFF	; 255
    2072:	80 93 a9 01 	sts	0x01A9, r24
			  }
			  if (CAN1.CAN_OFF_Count > 100) PORTB &= ~(1<<PB0);  // Switch of after 1s with no new CAN message.
    2076:	80 91 49 07 	lds	r24, 0x0749
    207a:	85 36       	cpi	r24, 0x65	; 101
    207c:	08 f0       	brcs	.+2      	; 0x2080 <__vector_12+0x78>
    207e:	28 98       	cbi	0x05, 0	; 5
}
    2080:	ff 91       	pop	r31
    2082:	ef 91       	pop	r30
    2084:	bf 91       	pop	r27
    2086:	af 91       	pop	r26
    2088:	9f 91       	pop	r25
    208a:	8f 91       	pop	r24
    208c:	7f 91       	pop	r23
    208e:	6f 91       	pop	r22
    2090:	5f 91       	pop	r21
    2092:	4f 91       	pop	r20
    2094:	3f 91       	pop	r19
    2096:	2f 91       	pop	r18
    2098:	0f 90       	pop	r0
    209a:	0b be       	out	0x3b, r0	; 59
    209c:	0f 90       	pop	r0
    209e:	0f be       	out	0x3f, r0	; 63
    20a0:	0f 90       	pop	r0
    20a2:	1f 90       	pop	r1
    20a4:	18 95       	reti

000020a6 <__vector_18>:

ISR(CANIT_vect)
{
    20a6:	1f 92       	push	r1
    20a8:	0f 92       	push	r0
    20aa:	0f b6       	in	r0, 0x3f	; 63
    20ac:	0f 92       	push	r0
    20ae:	11 24       	eor	r1, r1
    20b0:	0b b6       	in	r0, 0x3b	; 59
    20b2:	0f 92       	push	r0
    20b4:	2f 93       	push	r18
    20b6:	3f 93       	push	r19
    20b8:	4f 93       	push	r20
    20ba:	5f 93       	push	r21
    20bc:	6f 93       	push	r22
    20be:	7f 93       	push	r23
    20c0:	8f 93       	push	r24
    20c2:	9f 93       	push	r25
    20c4:	af 93       	push	r26
    20c6:	bf 93       	push	r27
    20c8:	cf 93       	push	r28
    20ca:	ef 93       	push	r30
    20cc:	ff 93       	push	r31
   uint8_t save_canpage = CANPAGE;		//  actual CANPAGE (my be interrupted by sending...)
    20ce:	c0 91 ed 00 	lds	r28, 0x00ED

	  if (CANSIT1 & (1<<SIT13))         //  only Interrupt on MOB 13 is for transport protocol RX
    20d2:	80 91 e1 00 	lds	r24, 0x00E1
    20d6:	85 ff       	sbrs	r24, 5
    20d8:	1d c0       	rjmp	.+58     	; 0x2114 <__vector_18+0x6e>
	  {
			CANPAGE = (13<<4);          //  set CAN Page 13 (reserved for receive transport protocol).
    20da:	80 ed       	ldi	r24, 0xD0	; 208
    20dc:	80 93 ed 00 	sts	0x00ED, r24
		    if (CANSTMOB & (1<<RXOK))   //  receive OK
    20e0:	80 91 ee 00 	lds	r24, 0x00EE
    20e4:	85 ff       	sbrs	r24, 5
    20e6:	14 c0       	rjmp	.+40     	; 0x2110 <__vector_18+0x6a>
		    {
				CAN1.store(Ptr_Stream, Act_StreamSIZE);	//  store the received messages into buffer
    20e8:	60 91 a3 01 	lds	r22, 0x01A3
    20ec:	70 91 a4 01 	lds	r23, 0x01A4
    20f0:	40 91 a2 01 	lds	r20, 0x01A2
    20f4:	84 ee       	ldi	r24, 0xE4	; 228
    20f6:	95 e0       	ldi	r25, 0x05	; 5
    20f8:	0e 94 c7 06 	call	0xd8e	; 0xd8e <_ZN12CAN_Twizplay5storeEPhh>
			    CANSTMOB &= ~(1<<RXOK);	//  reset INT reason
    20fc:	ee ee       	ldi	r30, 0xEE	; 238
    20fe:	f0 e0       	ldi	r31, 0x00	; 0
    2100:	80 81       	ld	r24, Z
    2102:	8f 7d       	andi	r24, 0xDF	; 223
    2104:	80 83       	st	Z, r24
			    CAN1.Int_count++;       //  count all receive Interrupts  
    2106:	ee ed       	ldi	r30, 0xDE	; 222
    2108:	f6 e0       	ldi	r31, 0x06	; 6
    210a:	80 81       	ld	r24, Z
    210c:	8f 5f       	subi	r24, 0xFF	; 255
    210e:	80 83       	st	Z, r24
		    }
		    CANPAGE = save_canpage;     //  restore CANPAGE
    2110:	c0 93 ed 00 	sts	0x00ED, r28
	  }
	  
      if (CANSIT1 & (1<<SIT14))         //  only Interrupt on MOB 14 is for transport protocol TX
    2114:	80 91 e1 00 	lds	r24, 0x00E1
    2118:	86 ff       	sbrs	r24, 6
    211a:	13 c0       	rjmp	.+38     	; 0x2142 <__vector_18+0x9c>
	  { 
		  CANPAGE = (14<<4);            //  set CAN Page 14 (reserved for transmit transport protocol). 
    211c:	80 ee       	ldi	r24, 0xE0	; 224
    211e:	80 93 ed 00 	sts	0x00ED, r24
		  if (CANSTMOB & (1<<TXOK))     //  transmit OK
    2122:	80 91 ee 00 	lds	r24, 0x00EE
    2126:	86 ff       	sbrs	r24, 6
    2128:	0a c0       	rjmp	.+20     	; 0x213e <__vector_18+0x98>
	      {
			  CANSTMOB &= ~(1<<TXOK);	//  reset INT reason
    212a:	ee ee       	ldi	r30, 0xEE	; 238
    212c:	f0 e0       	ldi	r31, 0x00	; 0
    212e:	80 81       	ld	r24, Z
    2130:	8f 7b       	andi	r24, 0xBF	; 191
    2132:	80 83       	st	Z, r24
			  CAN1.Int_count++;         //  count all transmit Interrupts
    2134:	ee ed       	ldi	r30, 0xDE	; 222
    2136:	f6 e0       	ldi	r31, 0x06	; 6
    2138:	80 81       	ld	r24, Z
    213a:	8f 5f       	subi	r24, 0xFF	; 255
    213c:	80 83       	st	Z, r24
		  }
		  CANPAGE = save_canpage;       //  restore CANPAGE
    213e:	c0 93 ed 00 	sts	0x00ED, r28
	  }
    2142:	ff 91       	pop	r31
    2144:	ef 91       	pop	r30
    2146:	cf 91       	pop	r28
    2148:	bf 91       	pop	r27
    214a:	af 91       	pop	r26
    214c:	9f 91       	pop	r25
    214e:	8f 91       	pop	r24
    2150:	7f 91       	pop	r23
    2152:	6f 91       	pop	r22
    2154:	5f 91       	pop	r21
    2156:	4f 91       	pop	r20
    2158:	3f 91       	pop	r19
    215a:	2f 91       	pop	r18
    215c:	0f 90       	pop	r0
    215e:	0b be       	out	0x3b, r0	; 59
    2160:	0f 90       	pop	r0
    2162:	0f be       	out	0x3f, r0	; 63
    2164:	0f 90       	pop	r0
    2166:	1f 90       	pop	r1
    2168:	18 95       	reti

0000216a <__subsf3>:
    216a:	50 58       	subi	r21, 0x80	; 128

0000216c <__addsf3>:
    216c:	bb 27       	eor	r27, r27
    216e:	aa 27       	eor	r26, r26
    2170:	0e d0       	rcall	.+28     	; 0x218e <__addsf3x>
    2172:	44 c1       	rjmp	.+648    	; 0x23fc <__fp_round>
    2174:	35 d1       	rcall	.+618    	; 0x23e0 <__fp_pscA>
    2176:	30 f0       	brcs	.+12     	; 0x2184 <__addsf3+0x18>
    2178:	3a d1       	rcall	.+628    	; 0x23ee <__fp_pscB>
    217a:	20 f0       	brcs	.+8      	; 0x2184 <__addsf3+0x18>
    217c:	31 f4       	brne	.+12     	; 0x218a <__addsf3+0x1e>
    217e:	9f 3f       	cpi	r25, 0xFF	; 255
    2180:	11 f4       	brne	.+4      	; 0x2186 <__addsf3+0x1a>
    2182:	1e f4       	brtc	.+6      	; 0x218a <__addsf3+0x1e>
    2184:	2a c1       	rjmp	.+596    	; 0x23da <__fp_nan>
    2186:	0e f4       	brtc	.+2      	; 0x218a <__addsf3+0x1e>
    2188:	e0 95       	com	r30
    218a:	e7 fb       	bst	r30, 7
    218c:	20 c1       	rjmp	.+576    	; 0x23ce <__fp_inf>

0000218e <__addsf3x>:
    218e:	e9 2f       	mov	r30, r25
    2190:	46 d1       	rcall	.+652    	; 0x241e <__fp_split3>
    2192:	80 f3       	brcs	.-32     	; 0x2174 <__addsf3+0x8>
    2194:	ba 17       	cp	r27, r26
    2196:	62 07       	cpc	r22, r18
    2198:	73 07       	cpc	r23, r19
    219a:	84 07       	cpc	r24, r20
    219c:	95 07       	cpc	r25, r21
    219e:	18 f0       	brcs	.+6      	; 0x21a6 <__addsf3x+0x18>
    21a0:	71 f4       	brne	.+28     	; 0x21be <__addsf3x+0x30>
    21a2:	9e f5       	brtc	.+102    	; 0x220a <__addsf3x+0x7c>
    21a4:	5e c1       	rjmp	.+700    	; 0x2462 <__fp_zero>
    21a6:	0e f4       	brtc	.+2      	; 0x21aa <__addsf3x+0x1c>
    21a8:	e0 95       	com	r30
    21aa:	0b 2e       	mov	r0, r27
    21ac:	ba 2f       	mov	r27, r26
    21ae:	a0 2d       	mov	r26, r0
    21b0:	0b 01       	movw	r0, r22
    21b2:	b9 01       	movw	r22, r18
    21b4:	90 01       	movw	r18, r0
    21b6:	0c 01       	movw	r0, r24
    21b8:	ca 01       	movw	r24, r20
    21ba:	a0 01       	movw	r20, r0
    21bc:	11 24       	eor	r1, r1
    21be:	ff 27       	eor	r31, r31
    21c0:	59 1b       	sub	r21, r25
    21c2:	99 f0       	breq	.+38     	; 0x21ea <__addsf3x+0x5c>
    21c4:	59 3f       	cpi	r21, 0xF9	; 249
    21c6:	50 f4       	brcc	.+20     	; 0x21dc <__addsf3x+0x4e>
    21c8:	50 3e       	cpi	r21, 0xE0	; 224
    21ca:	68 f1       	brcs	.+90     	; 0x2226 <__addsf3x+0x98>
    21cc:	1a 16       	cp	r1, r26
    21ce:	f0 40       	sbci	r31, 0x00	; 0
    21d0:	a2 2f       	mov	r26, r18
    21d2:	23 2f       	mov	r18, r19
    21d4:	34 2f       	mov	r19, r20
    21d6:	44 27       	eor	r20, r20
    21d8:	58 5f       	subi	r21, 0xF8	; 248
    21da:	f3 cf       	rjmp	.-26     	; 0x21c2 <__addsf3x+0x34>
    21dc:	46 95       	lsr	r20
    21de:	37 95       	ror	r19
    21e0:	27 95       	ror	r18
    21e2:	a7 95       	ror	r26
    21e4:	f0 40       	sbci	r31, 0x00	; 0
    21e6:	53 95       	inc	r21
    21e8:	c9 f7       	brne	.-14     	; 0x21dc <__addsf3x+0x4e>
    21ea:	7e f4       	brtc	.+30     	; 0x220a <__addsf3x+0x7c>
    21ec:	1f 16       	cp	r1, r31
    21ee:	ba 0b       	sbc	r27, r26
    21f0:	62 0b       	sbc	r22, r18
    21f2:	73 0b       	sbc	r23, r19
    21f4:	84 0b       	sbc	r24, r20
    21f6:	ba f0       	brmi	.+46     	; 0x2226 <__addsf3x+0x98>
    21f8:	91 50       	subi	r25, 0x01	; 1
    21fa:	a1 f0       	breq	.+40     	; 0x2224 <__addsf3x+0x96>
    21fc:	ff 0f       	add	r31, r31
    21fe:	bb 1f       	adc	r27, r27
    2200:	66 1f       	adc	r22, r22
    2202:	77 1f       	adc	r23, r23
    2204:	88 1f       	adc	r24, r24
    2206:	c2 f7       	brpl	.-16     	; 0x21f8 <__addsf3x+0x6a>
    2208:	0e c0       	rjmp	.+28     	; 0x2226 <__addsf3x+0x98>
    220a:	ba 0f       	add	r27, r26
    220c:	62 1f       	adc	r22, r18
    220e:	73 1f       	adc	r23, r19
    2210:	84 1f       	adc	r24, r20
    2212:	48 f4       	brcc	.+18     	; 0x2226 <__addsf3x+0x98>
    2214:	87 95       	ror	r24
    2216:	77 95       	ror	r23
    2218:	67 95       	ror	r22
    221a:	b7 95       	ror	r27
    221c:	f7 95       	ror	r31
    221e:	9e 3f       	cpi	r25, 0xFE	; 254
    2220:	08 f0       	brcs	.+2      	; 0x2224 <__addsf3x+0x96>
    2222:	b3 cf       	rjmp	.-154    	; 0x218a <__addsf3+0x1e>
    2224:	93 95       	inc	r25
    2226:	88 0f       	add	r24, r24
    2228:	08 f0       	brcs	.+2      	; 0x222c <__addsf3x+0x9e>
    222a:	99 27       	eor	r25, r25
    222c:	ee 0f       	add	r30, r30
    222e:	97 95       	ror	r25
    2230:	87 95       	ror	r24
    2232:	08 95       	ret

00002234 <__cmpsf2>:
    2234:	a8 d0       	rcall	.+336    	; 0x2386 <__fp_cmp>
    2236:	08 f4       	brcc	.+2      	; 0x223a <__cmpsf2+0x6>
    2238:	81 e0       	ldi	r24, 0x01	; 1
    223a:	08 95       	ret

0000223c <__divsf3>:
    223c:	0c d0       	rcall	.+24     	; 0x2256 <__divsf3x>
    223e:	de c0       	rjmp	.+444    	; 0x23fc <__fp_round>
    2240:	d6 d0       	rcall	.+428    	; 0x23ee <__fp_pscB>
    2242:	40 f0       	brcs	.+16     	; 0x2254 <__divsf3+0x18>
    2244:	cd d0       	rcall	.+410    	; 0x23e0 <__fp_pscA>
    2246:	30 f0       	brcs	.+12     	; 0x2254 <__divsf3+0x18>
    2248:	21 f4       	brne	.+8      	; 0x2252 <__divsf3+0x16>
    224a:	5f 3f       	cpi	r21, 0xFF	; 255
    224c:	19 f0       	breq	.+6      	; 0x2254 <__divsf3+0x18>
    224e:	bf c0       	rjmp	.+382    	; 0x23ce <__fp_inf>
    2250:	51 11       	cpse	r21, r1
    2252:	08 c1       	rjmp	.+528    	; 0x2464 <__fp_szero>
    2254:	c2 c0       	rjmp	.+388    	; 0x23da <__fp_nan>

00002256 <__divsf3x>:
    2256:	e3 d0       	rcall	.+454    	; 0x241e <__fp_split3>
    2258:	98 f3       	brcs	.-26     	; 0x2240 <__divsf3+0x4>

0000225a <__divsf3_pse>:
    225a:	99 23       	and	r25, r25
    225c:	c9 f3       	breq	.-14     	; 0x2250 <__divsf3+0x14>
    225e:	55 23       	and	r21, r21
    2260:	b1 f3       	breq	.-20     	; 0x224e <__divsf3+0x12>
    2262:	95 1b       	sub	r25, r21
    2264:	55 0b       	sbc	r21, r21
    2266:	bb 27       	eor	r27, r27
    2268:	aa 27       	eor	r26, r26
    226a:	62 17       	cp	r22, r18
    226c:	73 07       	cpc	r23, r19
    226e:	84 07       	cpc	r24, r20
    2270:	38 f0       	brcs	.+14     	; 0x2280 <__divsf3_pse+0x26>
    2272:	9f 5f       	subi	r25, 0xFF	; 255
    2274:	5f 4f       	sbci	r21, 0xFF	; 255
    2276:	22 0f       	add	r18, r18
    2278:	33 1f       	adc	r19, r19
    227a:	44 1f       	adc	r20, r20
    227c:	aa 1f       	adc	r26, r26
    227e:	a9 f3       	breq	.-22     	; 0x226a <__divsf3_pse+0x10>
    2280:	33 d0       	rcall	.+102    	; 0x22e8 <__divsf3_pse+0x8e>
    2282:	0e 2e       	mov	r0, r30
    2284:	3a f0       	brmi	.+14     	; 0x2294 <__divsf3_pse+0x3a>
    2286:	e0 e8       	ldi	r30, 0x80	; 128
    2288:	30 d0       	rcall	.+96     	; 0x22ea <__divsf3_pse+0x90>
    228a:	91 50       	subi	r25, 0x01	; 1
    228c:	50 40       	sbci	r21, 0x00	; 0
    228e:	e6 95       	lsr	r30
    2290:	00 1c       	adc	r0, r0
    2292:	ca f7       	brpl	.-14     	; 0x2286 <__divsf3_pse+0x2c>
    2294:	29 d0       	rcall	.+82     	; 0x22e8 <__divsf3_pse+0x8e>
    2296:	fe 2f       	mov	r31, r30
    2298:	27 d0       	rcall	.+78     	; 0x22e8 <__divsf3_pse+0x8e>
    229a:	66 0f       	add	r22, r22
    229c:	77 1f       	adc	r23, r23
    229e:	88 1f       	adc	r24, r24
    22a0:	bb 1f       	adc	r27, r27
    22a2:	26 17       	cp	r18, r22
    22a4:	37 07       	cpc	r19, r23
    22a6:	48 07       	cpc	r20, r24
    22a8:	ab 07       	cpc	r26, r27
    22aa:	b0 e8       	ldi	r27, 0x80	; 128
    22ac:	09 f0       	breq	.+2      	; 0x22b0 <__divsf3_pse+0x56>
    22ae:	bb 0b       	sbc	r27, r27
    22b0:	80 2d       	mov	r24, r0
    22b2:	bf 01       	movw	r22, r30
    22b4:	ff 27       	eor	r31, r31
    22b6:	93 58       	subi	r25, 0x83	; 131
    22b8:	5f 4f       	sbci	r21, 0xFF	; 255
    22ba:	2a f0       	brmi	.+10     	; 0x22c6 <__divsf3_pse+0x6c>
    22bc:	9e 3f       	cpi	r25, 0xFE	; 254
    22be:	51 05       	cpc	r21, r1
    22c0:	68 f0       	brcs	.+26     	; 0x22dc <__divsf3_pse+0x82>
    22c2:	85 c0       	rjmp	.+266    	; 0x23ce <__fp_inf>
    22c4:	cf c0       	rjmp	.+414    	; 0x2464 <__fp_szero>
    22c6:	5f 3f       	cpi	r21, 0xFF	; 255
    22c8:	ec f3       	brlt	.-6      	; 0x22c4 <__divsf3_pse+0x6a>
    22ca:	98 3e       	cpi	r25, 0xE8	; 232
    22cc:	dc f3       	brlt	.-10     	; 0x22c4 <__divsf3_pse+0x6a>
    22ce:	86 95       	lsr	r24
    22d0:	77 95       	ror	r23
    22d2:	67 95       	ror	r22
    22d4:	b7 95       	ror	r27
    22d6:	f7 95       	ror	r31
    22d8:	9f 5f       	subi	r25, 0xFF	; 255
    22da:	c9 f7       	brne	.-14     	; 0x22ce <__divsf3_pse+0x74>
    22dc:	88 0f       	add	r24, r24
    22de:	91 1d       	adc	r25, r1
    22e0:	96 95       	lsr	r25
    22e2:	87 95       	ror	r24
    22e4:	97 f9       	bld	r25, 7
    22e6:	08 95       	ret
    22e8:	e1 e0       	ldi	r30, 0x01	; 1
    22ea:	66 0f       	add	r22, r22
    22ec:	77 1f       	adc	r23, r23
    22ee:	88 1f       	adc	r24, r24
    22f0:	bb 1f       	adc	r27, r27
    22f2:	62 17       	cp	r22, r18
    22f4:	73 07       	cpc	r23, r19
    22f6:	84 07       	cpc	r24, r20
    22f8:	ba 07       	cpc	r27, r26
    22fa:	20 f0       	brcs	.+8      	; 0x2304 <__divsf3_pse+0xaa>
    22fc:	62 1b       	sub	r22, r18
    22fe:	73 0b       	sbc	r23, r19
    2300:	84 0b       	sbc	r24, r20
    2302:	ba 0b       	sbc	r27, r26
    2304:	ee 1f       	adc	r30, r30
    2306:	88 f7       	brcc	.-30     	; 0x22ea <__divsf3_pse+0x90>
    2308:	e0 95       	com	r30
    230a:	08 95       	ret

0000230c <__floatunsisf>:
    230c:	e8 94       	clt
    230e:	09 c0       	rjmp	.+18     	; 0x2322 <__floatsisf+0x12>

00002310 <__floatsisf>:
    2310:	97 fb       	bst	r25, 7
    2312:	3e f4       	brtc	.+14     	; 0x2322 <__floatsisf+0x12>
    2314:	90 95       	com	r25
    2316:	80 95       	com	r24
    2318:	70 95       	com	r23
    231a:	61 95       	neg	r22
    231c:	7f 4f       	sbci	r23, 0xFF	; 255
    231e:	8f 4f       	sbci	r24, 0xFF	; 255
    2320:	9f 4f       	sbci	r25, 0xFF	; 255
    2322:	99 23       	and	r25, r25
    2324:	a9 f0       	breq	.+42     	; 0x2350 <__floatsisf+0x40>
    2326:	f9 2f       	mov	r31, r25
    2328:	96 e9       	ldi	r25, 0x96	; 150
    232a:	bb 27       	eor	r27, r27
    232c:	93 95       	inc	r25
    232e:	f6 95       	lsr	r31
    2330:	87 95       	ror	r24
    2332:	77 95       	ror	r23
    2334:	67 95       	ror	r22
    2336:	b7 95       	ror	r27
    2338:	f1 11       	cpse	r31, r1
    233a:	f8 cf       	rjmp	.-16     	; 0x232c <__floatsisf+0x1c>
    233c:	fa f4       	brpl	.+62     	; 0x237c <__floatsisf+0x6c>
    233e:	bb 0f       	add	r27, r27
    2340:	11 f4       	brne	.+4      	; 0x2346 <__floatsisf+0x36>
    2342:	60 ff       	sbrs	r22, 0
    2344:	1b c0       	rjmp	.+54     	; 0x237c <__floatsisf+0x6c>
    2346:	6f 5f       	subi	r22, 0xFF	; 255
    2348:	7f 4f       	sbci	r23, 0xFF	; 255
    234a:	8f 4f       	sbci	r24, 0xFF	; 255
    234c:	9f 4f       	sbci	r25, 0xFF	; 255
    234e:	16 c0       	rjmp	.+44     	; 0x237c <__floatsisf+0x6c>
    2350:	88 23       	and	r24, r24
    2352:	11 f0       	breq	.+4      	; 0x2358 <__floatsisf+0x48>
    2354:	96 e9       	ldi	r25, 0x96	; 150
    2356:	11 c0       	rjmp	.+34     	; 0x237a <__floatsisf+0x6a>
    2358:	77 23       	and	r23, r23
    235a:	21 f0       	breq	.+8      	; 0x2364 <__floatsisf+0x54>
    235c:	9e e8       	ldi	r25, 0x8E	; 142
    235e:	87 2f       	mov	r24, r23
    2360:	76 2f       	mov	r23, r22
    2362:	05 c0       	rjmp	.+10     	; 0x236e <__floatsisf+0x5e>
    2364:	66 23       	and	r22, r22
    2366:	71 f0       	breq	.+28     	; 0x2384 <__floatsisf+0x74>
    2368:	96 e8       	ldi	r25, 0x86	; 134
    236a:	86 2f       	mov	r24, r22
    236c:	70 e0       	ldi	r23, 0x00	; 0
    236e:	60 e0       	ldi	r22, 0x00	; 0
    2370:	2a f0       	brmi	.+10     	; 0x237c <__floatsisf+0x6c>
    2372:	9a 95       	dec	r25
    2374:	66 0f       	add	r22, r22
    2376:	77 1f       	adc	r23, r23
    2378:	88 1f       	adc	r24, r24
    237a:	da f7       	brpl	.-10     	; 0x2372 <__floatsisf+0x62>
    237c:	88 0f       	add	r24, r24
    237e:	96 95       	lsr	r25
    2380:	87 95       	ror	r24
    2382:	97 f9       	bld	r25, 7
    2384:	08 95       	ret

00002386 <__fp_cmp>:
    2386:	99 0f       	add	r25, r25
    2388:	00 08       	sbc	r0, r0
    238a:	55 0f       	add	r21, r21
    238c:	aa 0b       	sbc	r26, r26
    238e:	e0 e8       	ldi	r30, 0x80	; 128
    2390:	fe ef       	ldi	r31, 0xFE	; 254
    2392:	16 16       	cp	r1, r22
    2394:	17 06       	cpc	r1, r23
    2396:	e8 07       	cpc	r30, r24
    2398:	f9 07       	cpc	r31, r25
    239a:	c0 f0       	brcs	.+48     	; 0x23cc <__fp_cmp+0x46>
    239c:	12 16       	cp	r1, r18
    239e:	13 06       	cpc	r1, r19
    23a0:	e4 07       	cpc	r30, r20
    23a2:	f5 07       	cpc	r31, r21
    23a4:	98 f0       	brcs	.+38     	; 0x23cc <__fp_cmp+0x46>
    23a6:	62 1b       	sub	r22, r18
    23a8:	73 0b       	sbc	r23, r19
    23aa:	84 0b       	sbc	r24, r20
    23ac:	95 0b       	sbc	r25, r21
    23ae:	39 f4       	brne	.+14     	; 0x23be <__fp_cmp+0x38>
    23b0:	0a 26       	eor	r0, r26
    23b2:	61 f0       	breq	.+24     	; 0x23cc <__fp_cmp+0x46>
    23b4:	23 2b       	or	r18, r19
    23b6:	24 2b       	or	r18, r20
    23b8:	25 2b       	or	r18, r21
    23ba:	21 f4       	brne	.+8      	; 0x23c4 <__fp_cmp+0x3e>
    23bc:	08 95       	ret
    23be:	0a 26       	eor	r0, r26
    23c0:	09 f4       	brne	.+2      	; 0x23c4 <__fp_cmp+0x3e>
    23c2:	a1 40       	sbci	r26, 0x01	; 1
    23c4:	a6 95       	lsr	r26
    23c6:	8f ef       	ldi	r24, 0xFF	; 255
    23c8:	81 1d       	adc	r24, r1
    23ca:	81 1d       	adc	r24, r1
    23cc:	08 95       	ret

000023ce <__fp_inf>:
    23ce:	97 f9       	bld	r25, 7
    23d0:	9f 67       	ori	r25, 0x7F	; 127
    23d2:	80 e8       	ldi	r24, 0x80	; 128
    23d4:	70 e0       	ldi	r23, 0x00	; 0
    23d6:	60 e0       	ldi	r22, 0x00	; 0
    23d8:	08 95       	ret

000023da <__fp_nan>:
    23da:	9f ef       	ldi	r25, 0xFF	; 255
    23dc:	80 ec       	ldi	r24, 0xC0	; 192
    23de:	08 95       	ret

000023e0 <__fp_pscA>:
    23e0:	00 24       	eor	r0, r0
    23e2:	0a 94       	dec	r0
    23e4:	16 16       	cp	r1, r22
    23e6:	17 06       	cpc	r1, r23
    23e8:	18 06       	cpc	r1, r24
    23ea:	09 06       	cpc	r0, r25
    23ec:	08 95       	ret

000023ee <__fp_pscB>:
    23ee:	00 24       	eor	r0, r0
    23f0:	0a 94       	dec	r0
    23f2:	12 16       	cp	r1, r18
    23f4:	13 06       	cpc	r1, r19
    23f6:	14 06       	cpc	r1, r20
    23f8:	05 06       	cpc	r0, r21
    23fa:	08 95       	ret

000023fc <__fp_round>:
    23fc:	09 2e       	mov	r0, r25
    23fe:	03 94       	inc	r0
    2400:	00 0c       	add	r0, r0
    2402:	11 f4       	brne	.+4      	; 0x2408 <__fp_round+0xc>
    2404:	88 23       	and	r24, r24
    2406:	52 f0       	brmi	.+20     	; 0x241c <__fp_round+0x20>
    2408:	bb 0f       	add	r27, r27
    240a:	40 f4       	brcc	.+16     	; 0x241c <__fp_round+0x20>
    240c:	bf 2b       	or	r27, r31
    240e:	11 f4       	brne	.+4      	; 0x2414 <__fp_round+0x18>
    2410:	60 ff       	sbrs	r22, 0
    2412:	04 c0       	rjmp	.+8      	; 0x241c <__fp_round+0x20>
    2414:	6f 5f       	subi	r22, 0xFF	; 255
    2416:	7f 4f       	sbci	r23, 0xFF	; 255
    2418:	8f 4f       	sbci	r24, 0xFF	; 255
    241a:	9f 4f       	sbci	r25, 0xFF	; 255
    241c:	08 95       	ret

0000241e <__fp_split3>:
    241e:	57 fd       	sbrc	r21, 7
    2420:	90 58       	subi	r25, 0x80	; 128
    2422:	44 0f       	add	r20, r20
    2424:	55 1f       	adc	r21, r21
    2426:	59 f0       	breq	.+22     	; 0x243e <__fp_splitA+0x10>
    2428:	5f 3f       	cpi	r21, 0xFF	; 255
    242a:	71 f0       	breq	.+28     	; 0x2448 <__fp_splitA+0x1a>
    242c:	47 95       	ror	r20

0000242e <__fp_splitA>:
    242e:	88 0f       	add	r24, r24
    2430:	97 fb       	bst	r25, 7
    2432:	99 1f       	adc	r25, r25
    2434:	61 f0       	breq	.+24     	; 0x244e <__fp_splitA+0x20>
    2436:	9f 3f       	cpi	r25, 0xFF	; 255
    2438:	79 f0       	breq	.+30     	; 0x2458 <__fp_splitA+0x2a>
    243a:	87 95       	ror	r24
    243c:	08 95       	ret
    243e:	12 16       	cp	r1, r18
    2440:	13 06       	cpc	r1, r19
    2442:	14 06       	cpc	r1, r20
    2444:	55 1f       	adc	r21, r21
    2446:	f2 cf       	rjmp	.-28     	; 0x242c <__fp_split3+0xe>
    2448:	46 95       	lsr	r20
    244a:	f1 df       	rcall	.-30     	; 0x242e <__fp_splitA>
    244c:	08 c0       	rjmp	.+16     	; 0x245e <__fp_splitA+0x30>
    244e:	16 16       	cp	r1, r22
    2450:	17 06       	cpc	r1, r23
    2452:	18 06       	cpc	r1, r24
    2454:	99 1f       	adc	r25, r25
    2456:	f1 cf       	rjmp	.-30     	; 0x243a <__fp_splitA+0xc>
    2458:	86 95       	lsr	r24
    245a:	71 05       	cpc	r23, r1
    245c:	61 05       	cpc	r22, r1
    245e:	08 94       	sec
    2460:	08 95       	ret

00002462 <__fp_zero>:
    2462:	e8 94       	clt

00002464 <__fp_szero>:
    2464:	bb 27       	eor	r27, r27
    2466:	66 27       	eor	r22, r22
    2468:	77 27       	eor	r23, r23
    246a:	cb 01       	movw	r24, r22
    246c:	97 f9       	bld	r25, 7
    246e:	08 95       	ret

00002470 <__gesf2>:
    2470:	8a df       	rcall	.-236    	; 0x2386 <__fp_cmp>
    2472:	08 f4       	brcc	.+2      	; 0x2476 <__gesf2+0x6>
    2474:	8f ef       	ldi	r24, 0xFF	; 255
    2476:	08 95       	ret

00002478 <__mulsf3>:
    2478:	0b d0       	rcall	.+22     	; 0x2490 <__mulsf3x>
    247a:	c0 cf       	rjmp	.-128    	; 0x23fc <__fp_round>
    247c:	b1 df       	rcall	.-158    	; 0x23e0 <__fp_pscA>
    247e:	28 f0       	brcs	.+10     	; 0x248a <__mulsf3+0x12>
    2480:	b6 df       	rcall	.-148    	; 0x23ee <__fp_pscB>
    2482:	18 f0       	brcs	.+6      	; 0x248a <__mulsf3+0x12>
    2484:	95 23       	and	r25, r21
    2486:	09 f0       	breq	.+2      	; 0x248a <__mulsf3+0x12>
    2488:	a2 cf       	rjmp	.-188    	; 0x23ce <__fp_inf>
    248a:	a7 cf       	rjmp	.-178    	; 0x23da <__fp_nan>
    248c:	11 24       	eor	r1, r1
    248e:	ea cf       	rjmp	.-44     	; 0x2464 <__fp_szero>

00002490 <__mulsf3x>:
    2490:	c6 df       	rcall	.-116    	; 0x241e <__fp_split3>
    2492:	a0 f3       	brcs	.-24     	; 0x247c <__mulsf3+0x4>

00002494 <__mulsf3_pse>:
    2494:	95 9f       	mul	r25, r21
    2496:	d1 f3       	breq	.-12     	; 0x248c <__mulsf3+0x14>
    2498:	95 0f       	add	r25, r21
    249a:	50 e0       	ldi	r21, 0x00	; 0
    249c:	55 1f       	adc	r21, r21
    249e:	62 9f       	mul	r22, r18
    24a0:	f0 01       	movw	r30, r0
    24a2:	72 9f       	mul	r23, r18
    24a4:	bb 27       	eor	r27, r27
    24a6:	f0 0d       	add	r31, r0
    24a8:	b1 1d       	adc	r27, r1
    24aa:	63 9f       	mul	r22, r19
    24ac:	aa 27       	eor	r26, r26
    24ae:	f0 0d       	add	r31, r0
    24b0:	b1 1d       	adc	r27, r1
    24b2:	aa 1f       	adc	r26, r26
    24b4:	64 9f       	mul	r22, r20
    24b6:	66 27       	eor	r22, r22
    24b8:	b0 0d       	add	r27, r0
    24ba:	a1 1d       	adc	r26, r1
    24bc:	66 1f       	adc	r22, r22
    24be:	82 9f       	mul	r24, r18
    24c0:	22 27       	eor	r18, r18
    24c2:	b0 0d       	add	r27, r0
    24c4:	a1 1d       	adc	r26, r1
    24c6:	62 1f       	adc	r22, r18
    24c8:	73 9f       	mul	r23, r19
    24ca:	b0 0d       	add	r27, r0
    24cc:	a1 1d       	adc	r26, r1
    24ce:	62 1f       	adc	r22, r18
    24d0:	83 9f       	mul	r24, r19
    24d2:	a0 0d       	add	r26, r0
    24d4:	61 1d       	adc	r22, r1
    24d6:	22 1f       	adc	r18, r18
    24d8:	74 9f       	mul	r23, r20
    24da:	33 27       	eor	r19, r19
    24dc:	a0 0d       	add	r26, r0
    24de:	61 1d       	adc	r22, r1
    24e0:	23 1f       	adc	r18, r19
    24e2:	84 9f       	mul	r24, r20
    24e4:	60 0d       	add	r22, r0
    24e6:	21 1d       	adc	r18, r1
    24e8:	82 2f       	mov	r24, r18
    24ea:	76 2f       	mov	r23, r22
    24ec:	6a 2f       	mov	r22, r26
    24ee:	11 24       	eor	r1, r1
    24f0:	9f 57       	subi	r25, 0x7F	; 127
    24f2:	50 40       	sbci	r21, 0x00	; 0
    24f4:	8a f0       	brmi	.+34     	; 0x2518 <__mulsf3_pse+0x84>
    24f6:	e1 f0       	breq	.+56     	; 0x2530 <__mulsf3_pse+0x9c>
    24f8:	88 23       	and	r24, r24
    24fa:	4a f0       	brmi	.+18     	; 0x250e <__mulsf3_pse+0x7a>
    24fc:	ee 0f       	add	r30, r30
    24fe:	ff 1f       	adc	r31, r31
    2500:	bb 1f       	adc	r27, r27
    2502:	66 1f       	adc	r22, r22
    2504:	77 1f       	adc	r23, r23
    2506:	88 1f       	adc	r24, r24
    2508:	91 50       	subi	r25, 0x01	; 1
    250a:	50 40       	sbci	r21, 0x00	; 0
    250c:	a9 f7       	brne	.-22     	; 0x24f8 <__mulsf3_pse+0x64>
    250e:	9e 3f       	cpi	r25, 0xFE	; 254
    2510:	51 05       	cpc	r21, r1
    2512:	70 f0       	brcs	.+28     	; 0x2530 <__mulsf3_pse+0x9c>
    2514:	5c cf       	rjmp	.-328    	; 0x23ce <__fp_inf>
    2516:	a6 cf       	rjmp	.-180    	; 0x2464 <__fp_szero>
    2518:	5f 3f       	cpi	r21, 0xFF	; 255
    251a:	ec f3       	brlt	.-6      	; 0x2516 <__mulsf3_pse+0x82>
    251c:	98 3e       	cpi	r25, 0xE8	; 232
    251e:	dc f3       	brlt	.-10     	; 0x2516 <__mulsf3_pse+0x82>
    2520:	86 95       	lsr	r24
    2522:	77 95       	ror	r23
    2524:	67 95       	ror	r22
    2526:	b7 95       	ror	r27
    2528:	f7 95       	ror	r31
    252a:	e7 95       	ror	r30
    252c:	9f 5f       	subi	r25, 0xFF	; 255
    252e:	c1 f7       	brne	.-16     	; 0x2520 <__mulsf3_pse+0x8c>
    2530:	fe 2b       	or	r31, r30
    2532:	88 0f       	add	r24, r24
    2534:	91 1d       	adc	r25, r1
    2536:	96 95       	lsr	r25
    2538:	87 95       	ror	r24
    253a:	97 f9       	bld	r25, 7
    253c:	08 95       	ret

0000253e <dtostrf>:
    253e:	ef 92       	push	r14
    2540:	0f 93       	push	r16
    2542:	1f 93       	push	r17
    2544:	cf 93       	push	r28
    2546:	df 93       	push	r29
    2548:	e8 01       	movw	r28, r16
    254a:	47 fd       	sbrc	r20, 7
    254c:	02 c0       	rjmp	.+4      	; 0x2552 <dtostrf+0x14>
    254e:	34 e0       	ldi	r19, 0x04	; 4
    2550:	01 c0       	rjmp	.+2      	; 0x2554 <dtostrf+0x16>
    2552:	34 e1       	ldi	r19, 0x14	; 20
    2554:	e4 2f       	mov	r30, r20
    2556:	44 0f       	add	r20, r20
    2558:	ff 0b       	sbc	r31, r31
    255a:	f7 ff       	sbrs	r31, 7
    255c:	03 c0       	rjmp	.+6      	; 0x2564 <dtostrf+0x26>
    255e:	f1 95       	neg	r31
    2560:	e1 95       	neg	r30
    2562:	f1 09       	sbc	r31, r1
    2564:	e3 2e       	mov	r14, r19
    2566:	02 2f       	mov	r16, r18
    2568:	2e 2f       	mov	r18, r30
    256a:	ae 01       	movw	r20, r28
    256c:	2a d0       	rcall	.+84     	; 0x25c2 <dtoa_prf>
    256e:	ce 01       	movw	r24, r28
    2570:	df 91       	pop	r29
    2572:	cf 91       	pop	r28
    2574:	1f 91       	pop	r17
    2576:	0f 91       	pop	r16
    2578:	ef 90       	pop	r14
    257a:	08 95       	ret

0000257c <__itoa_ncheck>:
    257c:	bb 27       	eor	r27, r27
    257e:	4a 30       	cpi	r20, 0x0A	; 10
    2580:	31 f4       	brne	.+12     	; 0x258e <__itoa_ncheck+0x12>
    2582:	99 23       	and	r25, r25
    2584:	22 f4       	brpl	.+8      	; 0x258e <__itoa_ncheck+0x12>
    2586:	bd e2       	ldi	r27, 0x2D	; 45
    2588:	90 95       	com	r25
    258a:	81 95       	neg	r24
    258c:	9f 4f       	sbci	r25, 0xFF	; 255
    258e:	01 c0       	rjmp	.+2      	; 0x2592 <__utoa_common>

00002590 <__utoa_ncheck>:
    2590:	bb 27       	eor	r27, r27

00002592 <__utoa_common>:
    2592:	fb 01       	movw	r30, r22
    2594:	55 27       	eor	r21, r21
    2596:	aa 27       	eor	r26, r26
    2598:	88 0f       	add	r24, r24
    259a:	99 1f       	adc	r25, r25
    259c:	aa 1f       	adc	r26, r26
    259e:	a4 17       	cp	r26, r20
    25a0:	10 f0       	brcs	.+4      	; 0x25a6 <__utoa_common+0x14>
    25a2:	a4 1b       	sub	r26, r20
    25a4:	83 95       	inc	r24
    25a6:	50 51       	subi	r21, 0x10	; 16
    25a8:	b9 f7       	brne	.-18     	; 0x2598 <__utoa_common+0x6>
    25aa:	a0 5d       	subi	r26, 0xD0	; 208
    25ac:	aa 33       	cpi	r26, 0x3A	; 58
    25ae:	08 f0       	brcs	.+2      	; 0x25b2 <__utoa_common+0x20>
    25b0:	a9 5d       	subi	r26, 0xD9	; 217
    25b2:	a1 93       	st	Z+, r26
    25b4:	00 97       	sbiw	r24, 0x00	; 0
    25b6:	79 f7       	brne	.-34     	; 0x2596 <__utoa_common+0x4>
    25b8:	b1 11       	cpse	r27, r1
    25ba:	b1 93       	st	Z+, r27
    25bc:	11 92       	st	Z+, r1
    25be:	cb 01       	movw	r24, r22
    25c0:	65 c2       	rjmp	.+1226   	; 0x2a8c <strrev>

000025c2 <dtoa_prf>:
    25c2:	4f 92       	push	r4
    25c4:	5f 92       	push	r5
    25c6:	6f 92       	push	r6
    25c8:	7f 92       	push	r7
    25ca:	9f 92       	push	r9
    25cc:	af 92       	push	r10
    25ce:	bf 92       	push	r11
    25d0:	cf 92       	push	r12
    25d2:	df 92       	push	r13
    25d4:	ef 92       	push	r14
    25d6:	ff 92       	push	r15
    25d8:	0f 93       	push	r16
    25da:	1f 93       	push	r17
    25dc:	cf 93       	push	r28
    25de:	df 93       	push	r29
    25e0:	cd b7       	in	r28, 0x3d	; 61
    25e2:	de b7       	in	r29, 0x3e	; 62
    25e4:	29 97       	sbiw	r28, 0x09	; 9
    25e6:	0f b6       	in	r0, 0x3f	; 63
    25e8:	f8 94       	cli
    25ea:	de bf       	out	0x3e, r29	; 62
    25ec:	0f be       	out	0x3f, r0	; 63
    25ee:	cd bf       	out	0x3d, r28	; 61
    25f0:	6a 01       	movw	r12, r20
    25f2:	12 2f       	mov	r17, r18
    25f4:	b0 2e       	mov	r11, r16
    25f6:	2b e3       	ldi	r18, 0x3B	; 59
    25f8:	20 17       	cp	r18, r16
    25fa:	20 f0       	brcs	.+8      	; 0x2604 <dtoa_prf+0x42>
    25fc:	ff 24       	eor	r15, r15
    25fe:	f3 94       	inc	r15
    2600:	f0 0e       	add	r15, r16
    2602:	02 c0       	rjmp	.+4      	; 0x2608 <dtoa_prf+0x46>
    2604:	bc e3       	ldi	r27, 0x3C	; 60
    2606:	fb 2e       	mov	r15, r27
    2608:	0f 2d       	mov	r16, r15
    260a:	27 e0       	ldi	r18, 0x07	; 7
    260c:	ae 01       	movw	r20, r28
    260e:	4f 5f       	subi	r20, 0xFF	; 255
    2610:	5f 4f       	sbci	r21, 0xFF	; 255
    2612:	64 d1       	rcall	.+712    	; 0x28dc <__ftoa_engine>
    2614:	ac 01       	movw	r20, r24
    2616:	89 81       	ldd	r24, Y+1	; 0x01
    2618:	98 2f       	mov	r25, r24
    261a:	99 70       	andi	r25, 0x09	; 9
    261c:	91 30       	cpi	r25, 0x01	; 1
    261e:	31 f0       	breq	.+12     	; 0x262c <dtoa_prf+0x6a>
    2620:	e1 fc       	sbrc	r14, 1
    2622:	06 c0       	rjmp	.+12     	; 0x2630 <dtoa_prf+0x6e>
    2624:	e0 fe       	sbrs	r14, 0
    2626:	06 c0       	rjmp	.+12     	; 0x2634 <dtoa_prf+0x72>
    2628:	90 e2       	ldi	r25, 0x20	; 32
    262a:	05 c0       	rjmp	.+10     	; 0x2636 <dtoa_prf+0x74>
    262c:	9d e2       	ldi	r25, 0x2D	; 45
    262e:	03 c0       	rjmp	.+6      	; 0x2636 <dtoa_prf+0x74>
    2630:	9b e2       	ldi	r25, 0x2B	; 43
    2632:	01 c0       	rjmp	.+2      	; 0x2636 <dtoa_prf+0x74>
    2634:	90 e0       	ldi	r25, 0x00	; 0
    2636:	ee 2d       	mov	r30, r14
    2638:	e0 71       	andi	r30, 0x10	; 16
    263a:	83 ff       	sbrs	r24, 3
    263c:	3c c0       	rjmp	.+120    	; 0x26b6 <dtoa_prf+0xf4>
    263e:	91 11       	cpse	r25, r1
    2640:	02 c0       	rjmp	.+4      	; 0x2646 <dtoa_prf+0x84>
    2642:	83 e0       	ldi	r24, 0x03	; 3
    2644:	01 c0       	rjmp	.+2      	; 0x2648 <dtoa_prf+0x86>
    2646:	84 e0       	ldi	r24, 0x04	; 4
    2648:	81 17       	cp	r24, r17
    264a:	18 f4       	brcc	.+6      	; 0x2652 <dtoa_prf+0x90>
    264c:	21 2f       	mov	r18, r17
    264e:	28 1b       	sub	r18, r24
    2650:	01 c0       	rjmp	.+2      	; 0x2654 <dtoa_prf+0x92>
    2652:	20 e0       	ldi	r18, 0x00	; 0
    2654:	e1 11       	cpse	r30, r1
    2656:	0b c0       	rjmp	.+22     	; 0x266e <dtoa_prf+0xac>
    2658:	f6 01       	movw	r30, r12
    265a:	82 2f       	mov	r24, r18
    265c:	30 e2       	ldi	r19, 0x20	; 32
    265e:	88 23       	and	r24, r24
    2660:	19 f0       	breq	.+6      	; 0x2668 <dtoa_prf+0xa6>
    2662:	31 93       	st	Z+, r19
    2664:	81 50       	subi	r24, 0x01	; 1
    2666:	fb cf       	rjmp	.-10     	; 0x265e <dtoa_prf+0x9c>
    2668:	c2 0e       	add	r12, r18
    266a:	d1 1c       	adc	r13, r1
    266c:	20 e0       	ldi	r18, 0x00	; 0
    266e:	99 23       	and	r25, r25
    2670:	29 f0       	breq	.+10     	; 0x267c <dtoa_prf+0xba>
    2672:	d6 01       	movw	r26, r12
    2674:	9c 93       	st	X, r25
    2676:	f6 01       	movw	r30, r12
    2678:	31 96       	adiw	r30, 0x01	; 1
    267a:	6f 01       	movw	r12, r30
    267c:	c6 01       	movw	r24, r12
    267e:	03 96       	adiw	r24, 0x03	; 3
    2680:	e2 fe       	sbrs	r14, 2
    2682:	0a c0       	rjmp	.+20     	; 0x2698 <dtoa_prf+0xd6>
    2684:	3e e4       	ldi	r19, 0x4E	; 78
    2686:	d6 01       	movw	r26, r12
    2688:	3c 93       	st	X, r19
    268a:	41 e4       	ldi	r20, 0x41	; 65
    268c:	11 96       	adiw	r26, 0x01	; 1
    268e:	4c 93       	st	X, r20
    2690:	11 97       	sbiw	r26, 0x01	; 1
    2692:	12 96       	adiw	r26, 0x02	; 2
    2694:	3c 93       	st	X, r19
    2696:	06 c0       	rjmp	.+12     	; 0x26a4 <dtoa_prf+0xe2>
    2698:	3e e6       	ldi	r19, 0x6E	; 110
    269a:	f6 01       	movw	r30, r12
    269c:	30 83       	st	Z, r19
    269e:	41 e6       	ldi	r20, 0x61	; 97
    26a0:	41 83       	std	Z+1, r20	; 0x01
    26a2:	32 83       	std	Z+2, r19	; 0x02
    26a4:	fc 01       	movw	r30, r24
    26a6:	32 2f       	mov	r19, r18
    26a8:	40 e2       	ldi	r20, 0x20	; 32
    26aa:	33 23       	and	r19, r19
    26ac:	09 f4       	brne	.+2      	; 0x26b0 <dtoa_prf+0xee>
    26ae:	42 c0       	rjmp	.+132    	; 0x2734 <dtoa_prf+0x172>
    26b0:	41 93       	st	Z+, r20
    26b2:	31 50       	subi	r19, 0x01	; 1
    26b4:	fa cf       	rjmp	.-12     	; 0x26aa <dtoa_prf+0xe8>
    26b6:	82 ff       	sbrs	r24, 2
    26b8:	44 c0       	rjmp	.+136    	; 0x2742 <dtoa_prf+0x180>
    26ba:	91 11       	cpse	r25, r1
    26bc:	02 c0       	rjmp	.+4      	; 0x26c2 <dtoa_prf+0x100>
    26be:	83 e0       	ldi	r24, 0x03	; 3
    26c0:	01 c0       	rjmp	.+2      	; 0x26c4 <dtoa_prf+0x102>
    26c2:	84 e0       	ldi	r24, 0x04	; 4
    26c4:	81 17       	cp	r24, r17
    26c6:	18 f4       	brcc	.+6      	; 0x26ce <dtoa_prf+0x10c>
    26c8:	21 2f       	mov	r18, r17
    26ca:	28 1b       	sub	r18, r24
    26cc:	01 c0       	rjmp	.+2      	; 0x26d0 <dtoa_prf+0x10e>
    26ce:	20 e0       	ldi	r18, 0x00	; 0
    26d0:	e1 11       	cpse	r30, r1
    26d2:	0b c0       	rjmp	.+22     	; 0x26ea <dtoa_prf+0x128>
    26d4:	f6 01       	movw	r30, r12
    26d6:	82 2f       	mov	r24, r18
    26d8:	30 e2       	ldi	r19, 0x20	; 32
    26da:	88 23       	and	r24, r24
    26dc:	19 f0       	breq	.+6      	; 0x26e4 <dtoa_prf+0x122>
    26de:	31 93       	st	Z+, r19
    26e0:	81 50       	subi	r24, 0x01	; 1
    26e2:	fb cf       	rjmp	.-10     	; 0x26da <dtoa_prf+0x118>
    26e4:	c2 0e       	add	r12, r18
    26e6:	d1 1c       	adc	r13, r1
    26e8:	20 e0       	ldi	r18, 0x00	; 0
    26ea:	99 23       	and	r25, r25
    26ec:	29 f0       	breq	.+10     	; 0x26f8 <dtoa_prf+0x136>
    26ee:	d6 01       	movw	r26, r12
    26f0:	9c 93       	st	X, r25
    26f2:	f6 01       	movw	r30, r12
    26f4:	31 96       	adiw	r30, 0x01	; 1
    26f6:	6f 01       	movw	r12, r30
    26f8:	c6 01       	movw	r24, r12
    26fa:	03 96       	adiw	r24, 0x03	; 3
    26fc:	e2 fe       	sbrs	r14, 2
    26fe:	0b c0       	rjmp	.+22     	; 0x2716 <dtoa_prf+0x154>
    2700:	39 e4       	ldi	r19, 0x49	; 73
    2702:	d6 01       	movw	r26, r12
    2704:	3c 93       	st	X, r19
    2706:	3e e4       	ldi	r19, 0x4E	; 78
    2708:	11 96       	adiw	r26, 0x01	; 1
    270a:	3c 93       	st	X, r19
    270c:	11 97       	sbiw	r26, 0x01	; 1
    270e:	36 e4       	ldi	r19, 0x46	; 70
    2710:	12 96       	adiw	r26, 0x02	; 2
    2712:	3c 93       	st	X, r19
    2714:	07 c0       	rjmp	.+14     	; 0x2724 <dtoa_prf+0x162>
    2716:	39 e6       	ldi	r19, 0x69	; 105
    2718:	f6 01       	movw	r30, r12
    271a:	30 83       	st	Z, r19
    271c:	3e e6       	ldi	r19, 0x6E	; 110
    271e:	31 83       	std	Z+1, r19	; 0x01
    2720:	36 e6       	ldi	r19, 0x66	; 102
    2722:	32 83       	std	Z+2, r19	; 0x02
    2724:	fc 01       	movw	r30, r24
    2726:	32 2f       	mov	r19, r18
    2728:	40 e2       	ldi	r20, 0x20	; 32
    272a:	33 23       	and	r19, r19
    272c:	19 f0       	breq	.+6      	; 0x2734 <dtoa_prf+0x172>
    272e:	41 93       	st	Z+, r20
    2730:	31 50       	subi	r19, 0x01	; 1
    2732:	fb cf       	rjmp	.-10     	; 0x272a <dtoa_prf+0x168>
    2734:	fc 01       	movw	r30, r24
    2736:	e2 0f       	add	r30, r18
    2738:	f1 1d       	adc	r31, r1
    273a:	10 82       	st	Z, r1
    273c:	8e ef       	ldi	r24, 0xFE	; 254
    273e:	9f ef       	ldi	r25, 0xFF	; 255
    2740:	b7 c0       	rjmp	.+366    	; 0x28b0 <dtoa_prf+0x2ee>
    2742:	f1 e0       	ldi	r31, 0x01	; 1
    2744:	91 11       	cpse	r25, r1
    2746:	01 c0       	rjmp	.+2      	; 0x274a <dtoa_prf+0x188>
    2748:	f0 e0       	ldi	r31, 0x00	; 0
    274a:	6f 2f       	mov	r22, r31
    274c:	70 e0       	ldi	r23, 0x00	; 0
    274e:	14 16       	cp	r1, r20
    2750:	15 06       	cpc	r1, r21
    2752:	24 f4       	brge	.+8      	; 0x275c <dtoa_prf+0x19a>
    2754:	9a 01       	movw	r18, r20
    2756:	2f 5f       	subi	r18, 0xFF	; 255
    2758:	3f 4f       	sbci	r19, 0xFF	; 255
    275a:	02 c0       	rjmp	.+4      	; 0x2760 <dtoa_prf+0x19e>
    275c:	21 e0       	ldi	r18, 0x01	; 1
    275e:	30 e0       	ldi	r19, 0x00	; 0
    2760:	26 0f       	add	r18, r22
    2762:	37 1f       	adc	r19, r23
    2764:	bb 20       	and	r11, r11
    2766:	29 f0       	breq	.+10     	; 0x2772 <dtoa_prf+0x1b0>
    2768:	6b 2d       	mov	r22, r11
    276a:	70 e0       	ldi	r23, 0x00	; 0
    276c:	6f 5f       	subi	r22, 0xFF	; 255
    276e:	7f 4f       	sbci	r23, 0xFF	; 255
    2770:	02 c0       	rjmp	.+4      	; 0x2776 <dtoa_prf+0x1b4>
    2772:	60 e0       	ldi	r22, 0x00	; 0
    2774:	70 e0       	ldi	r23, 0x00	; 0
    2776:	26 0f       	add	r18, r22
    2778:	37 1f       	adc	r19, r23
    277a:	61 2f       	mov	r22, r17
    277c:	70 e0       	ldi	r23, 0x00	; 0
    277e:	26 17       	cp	r18, r22
    2780:	37 07       	cpc	r19, r23
    2782:	1c f4       	brge	.+6      	; 0x278a <dtoa_prf+0x1c8>
    2784:	12 1b       	sub	r17, r18
    2786:	21 2f       	mov	r18, r17
    2788:	01 c0       	rjmp	.+2      	; 0x278c <dtoa_prf+0x1ca>
    278a:	20 e0       	ldi	r18, 0x00	; 0
    278c:	3e 2d       	mov	r19, r14
    278e:	38 71       	andi	r19, 0x18	; 24
    2790:	59 f4       	brne	.+22     	; 0x27a8 <dtoa_prf+0x1e6>
    2792:	d6 01       	movw	r26, r12
    2794:	32 2f       	mov	r19, r18
    2796:	60 e2       	ldi	r22, 0x20	; 32
    2798:	33 23       	and	r19, r19
    279a:	19 f0       	breq	.+6      	; 0x27a2 <dtoa_prf+0x1e0>
    279c:	6d 93       	st	X+, r22
    279e:	31 50       	subi	r19, 0x01	; 1
    27a0:	fb cf       	rjmp	.-10     	; 0x2798 <dtoa_prf+0x1d6>
    27a2:	c2 0e       	add	r12, r18
    27a4:	d1 1c       	adc	r13, r1
    27a6:	20 e0       	ldi	r18, 0x00	; 0
    27a8:	ff 23       	and	r31, r31
    27aa:	31 f0       	breq	.+12     	; 0x27b8 <dtoa_prf+0x1f6>
    27ac:	d6 01       	movw	r26, r12
    27ae:	9c 93       	st	X, r25
    27b0:	b6 01       	movw	r22, r12
    27b2:	6f 5f       	subi	r22, 0xFF	; 255
    27b4:	7f 4f       	sbci	r23, 0xFF	; 255
    27b6:	6b 01       	movw	r12, r22
    27b8:	e1 11       	cpse	r30, r1
    27ba:	0b c0       	rjmp	.+22     	; 0x27d2 <dtoa_prf+0x210>
    27bc:	f6 01       	movw	r30, r12
    27be:	92 2f       	mov	r25, r18
    27c0:	30 e3       	ldi	r19, 0x30	; 48
    27c2:	99 23       	and	r25, r25
    27c4:	19 f0       	breq	.+6      	; 0x27cc <dtoa_prf+0x20a>
    27c6:	31 93       	st	Z+, r19
    27c8:	91 50       	subi	r25, 0x01	; 1
    27ca:	fb cf       	rjmp	.-10     	; 0x27c2 <dtoa_prf+0x200>
    27cc:	c2 0e       	add	r12, r18
    27ce:	d1 1c       	adc	r13, r1
    27d0:	20 e0       	ldi	r18, 0x00	; 0
    27d2:	9f 2d       	mov	r25, r15
    27d4:	94 0f       	add	r25, r20
    27d6:	3a 81       	ldd	r19, Y+2	; 0x02
    27d8:	78 2f       	mov	r23, r24
    27da:	70 71       	andi	r23, 0x10	; 16
    27dc:	a7 2e       	mov	r10, r23
    27de:	84 ff       	sbrs	r24, 4
    27e0:	03 c0       	rjmp	.+6      	; 0x27e8 <dtoa_prf+0x226>
    27e2:	31 33       	cpi	r19, 0x31	; 49
    27e4:	09 f4       	brne	.+2      	; 0x27e8 <dtoa_prf+0x226>
    27e6:	91 50       	subi	r25, 0x01	; 1
    27e8:	19 16       	cp	r1, r25
    27ea:	24 f4       	brge	.+8      	; 0x27f4 <dtoa_prf+0x232>
    27ec:	99 30       	cpi	r25, 0x09	; 9
    27ee:	18 f0       	brcs	.+6      	; 0x27f6 <dtoa_prf+0x234>
    27f0:	98 e0       	ldi	r25, 0x08	; 8
    27f2:	01 c0       	rjmp	.+2      	; 0x27f6 <dtoa_prf+0x234>
    27f4:	91 e0       	ldi	r25, 0x01	; 1
    27f6:	e4 2f       	mov	r30, r20
    27f8:	85 2f       	mov	r24, r21
    27fa:	57 ff       	sbrs	r21, 7
    27fc:	02 c0       	rjmp	.+4      	; 0x2802 <dtoa_prf+0x240>
    27fe:	e0 e0       	ldi	r30, 0x00	; 0
    2800:	80 e0       	ldi	r24, 0x00	; 0
    2802:	6e 2f       	mov	r22, r30
    2804:	78 2f       	mov	r23, r24
    2806:	e0 e0       	ldi	r30, 0x00	; 0
    2808:	f0 e0       	ldi	r31, 0x00	; 0
    280a:	ae e2       	ldi	r26, 0x2E	; 46
    280c:	9a 2e       	mov	r9, r26
    280e:	3a 01       	movw	r6, r20
    2810:	69 1a       	sub	r6, r25
    2812:	71 08       	sbc	r7, r1
    2814:	2a 01       	movw	r4, r20
    2816:	46 1a       	sub	r4, r22
    2818:	57 0a       	sbc	r5, r23
    281a:	0b 2d       	mov	r16, r11
    281c:	10 e0       	ldi	r17, 0x00	; 0
    281e:	11 95       	neg	r17
    2820:	01 95       	neg	r16
    2822:	11 09       	sbc	r17, r1
    2824:	6f 3f       	cpi	r22, 0xFF	; 255
    2826:	8f ef       	ldi	r24, 0xFF	; 255
    2828:	78 07       	cpc	r23, r24
    282a:	29 f4       	brne	.+10     	; 0x2836 <dtoa_prf+0x274>
    282c:	d6 01       	movw	r26, r12
    282e:	9c 92       	st	X, r9
    2830:	c6 01       	movw	r24, r12
    2832:	01 96       	adiw	r24, 0x01	; 1
    2834:	6c 01       	movw	r12, r24
    2836:	46 17       	cp	r20, r22
    2838:	57 07       	cpc	r21, r23
    283a:	84 f0       	brlt	.+32     	; 0x285c <dtoa_prf+0x29a>
    283c:	66 16       	cp	r6, r22
    283e:	77 06       	cpc	r7, r23
    2840:	6c f4       	brge	.+26     	; 0x285c <dtoa_prf+0x29a>
    2842:	7f 01       	movw	r14, r30
    2844:	e4 0c       	add	r14, r4
    2846:	f5 1c       	adc	r15, r5
    2848:	a1 e0       	ldi	r26, 0x01	; 1
    284a:	b0 e0       	ldi	r27, 0x00	; 0
    284c:	ac 0f       	add	r26, r28
    284e:	bd 1f       	adc	r27, r29
    2850:	ea 0e       	add	r14, r26
    2852:	fb 1e       	adc	r15, r27
    2854:	d7 01       	movw	r26, r14
    2856:	11 96       	adiw	r26, 0x01	; 1
    2858:	bc 90       	ld	r11, X
    285a:	02 c0       	rjmp	.+4      	; 0x2860 <dtoa_prf+0x29e>
    285c:	90 e3       	ldi	r25, 0x30	; 48
    285e:	b9 2e       	mov	r11, r25
    2860:	61 50       	subi	r22, 0x01	; 1
    2862:	71 09       	sbc	r23, r1
    2864:	31 96       	adiw	r30, 0x01	; 1
    2866:	c6 01       	movw	r24, r12
    2868:	01 96       	adiw	r24, 0x01	; 1
    286a:	7c 01       	movw	r14, r24
    286c:	60 17       	cp	r22, r16
    286e:	71 07       	cpc	r23, r17
    2870:	24 f0       	brlt	.+8      	; 0x287a <dtoa_prf+0x2b8>
    2872:	d6 01       	movw	r26, r12
    2874:	bc 92       	st	X, r11
    2876:	6c 01       	movw	r12, r24
    2878:	d5 cf       	rjmp	.-86     	; 0x2824 <dtoa_prf+0x262>
    287a:	64 17       	cp	r22, r20
    287c:	75 07       	cpc	r23, r21
    287e:	41 f4       	brne	.+16     	; 0x2890 <dtoa_prf+0x2ce>
    2880:	36 33       	cpi	r19, 0x36	; 54
    2882:	20 f4       	brcc	.+8      	; 0x288c <dtoa_prf+0x2ca>
    2884:	35 33       	cpi	r19, 0x35	; 53
    2886:	21 f4       	brne	.+8      	; 0x2890 <dtoa_prf+0x2ce>
    2888:	a1 10       	cpse	r10, r1
    288a:	02 c0       	rjmp	.+4      	; 0x2890 <dtoa_prf+0x2ce>
    288c:	81 e3       	ldi	r24, 0x31	; 49
    288e:	b8 2e       	mov	r11, r24
    2890:	f6 01       	movw	r30, r12
    2892:	b0 82       	st	Z, r11
    2894:	f7 01       	movw	r30, r14
    2896:	82 2f       	mov	r24, r18
    2898:	90 e2       	ldi	r25, 0x20	; 32
    289a:	88 23       	and	r24, r24
    289c:	19 f0       	breq	.+6      	; 0x28a4 <dtoa_prf+0x2e2>
    289e:	91 93       	st	Z+, r25
    28a0:	81 50       	subi	r24, 0x01	; 1
    28a2:	fb cf       	rjmp	.-10     	; 0x289a <dtoa_prf+0x2d8>
    28a4:	f7 01       	movw	r30, r14
    28a6:	e2 0f       	add	r30, r18
    28a8:	f1 1d       	adc	r31, r1
    28aa:	10 82       	st	Z, r1
    28ac:	80 e0       	ldi	r24, 0x00	; 0
    28ae:	90 e0       	ldi	r25, 0x00	; 0
    28b0:	29 96       	adiw	r28, 0x09	; 9
    28b2:	0f b6       	in	r0, 0x3f	; 63
    28b4:	f8 94       	cli
    28b6:	de bf       	out	0x3e, r29	; 62
    28b8:	0f be       	out	0x3f, r0	; 63
    28ba:	cd bf       	out	0x3d, r28	; 61
    28bc:	df 91       	pop	r29
    28be:	cf 91       	pop	r28
    28c0:	1f 91       	pop	r17
    28c2:	0f 91       	pop	r16
    28c4:	ff 90       	pop	r15
    28c6:	ef 90       	pop	r14
    28c8:	df 90       	pop	r13
    28ca:	cf 90       	pop	r12
    28cc:	bf 90       	pop	r11
    28ce:	af 90       	pop	r10
    28d0:	9f 90       	pop	r9
    28d2:	7f 90       	pop	r7
    28d4:	6f 90       	pop	r6
    28d6:	5f 90       	pop	r5
    28d8:	4f 90       	pop	r4
    28da:	08 95       	ret

000028dc <__ftoa_engine>:
    28dc:	28 30       	cpi	r18, 0x08	; 8
    28de:	08 f0       	brcs	.+2      	; 0x28e2 <__ftoa_engine+0x6>
    28e0:	27 e0       	ldi	r18, 0x07	; 7
    28e2:	33 27       	eor	r19, r19
    28e4:	da 01       	movw	r26, r20
    28e6:	99 0f       	add	r25, r25
    28e8:	31 1d       	adc	r19, r1
    28ea:	87 fd       	sbrc	r24, 7
    28ec:	91 60       	ori	r25, 0x01	; 1
    28ee:	00 96       	adiw	r24, 0x00	; 0
    28f0:	61 05       	cpc	r22, r1
    28f2:	71 05       	cpc	r23, r1
    28f4:	39 f4       	brne	.+14     	; 0x2904 <__ftoa_engine+0x28>
    28f6:	32 60       	ori	r19, 0x02	; 2
    28f8:	2e 5f       	subi	r18, 0xFE	; 254
    28fa:	3d 93       	st	X+, r19
    28fc:	30 e3       	ldi	r19, 0x30	; 48
    28fe:	2a 95       	dec	r18
    2900:	e1 f7       	brne	.-8      	; 0x28fa <__ftoa_engine+0x1e>
    2902:	08 95       	ret
    2904:	9f 3f       	cpi	r25, 0xFF	; 255
    2906:	30 f0       	brcs	.+12     	; 0x2914 <__ftoa_engine+0x38>
    2908:	80 38       	cpi	r24, 0x80	; 128
    290a:	71 05       	cpc	r23, r1
    290c:	61 05       	cpc	r22, r1
    290e:	09 f0       	breq	.+2      	; 0x2912 <__ftoa_engine+0x36>
    2910:	3c 5f       	subi	r19, 0xFC	; 252
    2912:	3c 5f       	subi	r19, 0xFC	; 252
    2914:	3d 93       	st	X+, r19
    2916:	91 30       	cpi	r25, 0x01	; 1
    2918:	08 f0       	brcs	.+2      	; 0x291c <__ftoa_engine+0x40>
    291a:	80 68       	ori	r24, 0x80	; 128
    291c:	91 1d       	adc	r25, r1
    291e:	df 93       	push	r29
    2920:	cf 93       	push	r28
    2922:	1f 93       	push	r17
    2924:	0f 93       	push	r16
    2926:	ff 92       	push	r15
    2928:	ef 92       	push	r14
    292a:	19 2f       	mov	r17, r25
    292c:	98 7f       	andi	r25, 0xF8	; 248
    292e:	96 95       	lsr	r25
    2930:	e9 2f       	mov	r30, r25
    2932:	96 95       	lsr	r25
    2934:	96 95       	lsr	r25
    2936:	e9 0f       	add	r30, r25
    2938:	ff 27       	eor	r31, r31
    293a:	ee 5f       	subi	r30, 0xFE	; 254
    293c:	f7 4f       	sbci	r31, 0xF7	; 247
    293e:	99 27       	eor	r25, r25
    2940:	33 27       	eor	r19, r19
    2942:	ee 24       	eor	r14, r14
    2944:	ff 24       	eor	r15, r15
    2946:	a7 01       	movw	r20, r14
    2948:	e7 01       	movw	r28, r14
    294a:	05 90       	lpm	r0, Z+
    294c:	08 94       	sec
    294e:	07 94       	ror	r0
    2950:	28 f4       	brcc	.+10     	; 0x295c <__ftoa_engine+0x80>
    2952:	36 0f       	add	r19, r22
    2954:	e7 1e       	adc	r14, r23
    2956:	f8 1e       	adc	r15, r24
    2958:	49 1f       	adc	r20, r25
    295a:	51 1d       	adc	r21, r1
    295c:	66 0f       	add	r22, r22
    295e:	77 1f       	adc	r23, r23
    2960:	88 1f       	adc	r24, r24
    2962:	99 1f       	adc	r25, r25
    2964:	06 94       	lsr	r0
    2966:	a1 f7       	brne	.-24     	; 0x2950 <__ftoa_engine+0x74>
    2968:	05 90       	lpm	r0, Z+
    296a:	07 94       	ror	r0
    296c:	28 f4       	brcc	.+10     	; 0x2978 <__ftoa_engine+0x9c>
    296e:	e7 0e       	add	r14, r23
    2970:	f8 1e       	adc	r15, r24
    2972:	49 1f       	adc	r20, r25
    2974:	56 1f       	adc	r21, r22
    2976:	c1 1d       	adc	r28, r1
    2978:	77 0f       	add	r23, r23
    297a:	88 1f       	adc	r24, r24
    297c:	99 1f       	adc	r25, r25
    297e:	66 1f       	adc	r22, r22
    2980:	06 94       	lsr	r0
    2982:	a1 f7       	brne	.-24     	; 0x296c <__ftoa_engine+0x90>
    2984:	05 90       	lpm	r0, Z+
    2986:	07 94       	ror	r0
    2988:	28 f4       	brcc	.+10     	; 0x2994 <__ftoa_engine+0xb8>
    298a:	f8 0e       	add	r15, r24
    298c:	49 1f       	adc	r20, r25
    298e:	56 1f       	adc	r21, r22
    2990:	c7 1f       	adc	r28, r23
    2992:	d1 1d       	adc	r29, r1
    2994:	88 0f       	add	r24, r24
    2996:	99 1f       	adc	r25, r25
    2998:	66 1f       	adc	r22, r22
    299a:	77 1f       	adc	r23, r23
    299c:	06 94       	lsr	r0
    299e:	a1 f7       	brne	.-24     	; 0x2988 <__ftoa_engine+0xac>
    29a0:	05 90       	lpm	r0, Z+
    29a2:	07 94       	ror	r0
    29a4:	20 f4       	brcc	.+8      	; 0x29ae <__ftoa_engine+0xd2>
    29a6:	49 0f       	add	r20, r25
    29a8:	56 1f       	adc	r21, r22
    29aa:	c7 1f       	adc	r28, r23
    29ac:	d8 1f       	adc	r29, r24
    29ae:	99 0f       	add	r25, r25
    29b0:	66 1f       	adc	r22, r22
    29b2:	77 1f       	adc	r23, r23
    29b4:	88 1f       	adc	r24, r24
    29b6:	06 94       	lsr	r0
    29b8:	a9 f7       	brne	.-22     	; 0x29a4 <__ftoa_engine+0xc8>
    29ba:	84 91       	lpm	r24, Z
    29bc:	10 95       	com	r17
    29be:	17 70       	andi	r17, 0x07	; 7
    29c0:	41 f0       	breq	.+16     	; 0x29d2 <__ftoa_engine+0xf6>
    29c2:	d6 95       	lsr	r29
    29c4:	c7 95       	ror	r28
    29c6:	57 95       	ror	r21
    29c8:	47 95       	ror	r20
    29ca:	f7 94       	ror	r15
    29cc:	e7 94       	ror	r14
    29ce:	1a 95       	dec	r17
    29d0:	c1 f7       	brne	.-16     	; 0x29c2 <__ftoa_engine+0xe6>
    29d2:	e8 ea       	ldi	r30, 0xA8	; 168
    29d4:	f7 e0       	ldi	r31, 0x07	; 7
    29d6:	68 94       	set
    29d8:	15 90       	lpm	r1, Z+
    29da:	15 91       	lpm	r17, Z+
    29dc:	35 91       	lpm	r19, Z+
    29de:	65 91       	lpm	r22, Z+
    29e0:	95 91       	lpm	r25, Z+
    29e2:	05 90       	lpm	r0, Z+
    29e4:	7f e2       	ldi	r23, 0x2F	; 47
    29e6:	73 95       	inc	r23
    29e8:	e1 18       	sub	r14, r1
    29ea:	f1 0a       	sbc	r15, r17
    29ec:	43 0b       	sbc	r20, r19
    29ee:	56 0b       	sbc	r21, r22
    29f0:	c9 0b       	sbc	r28, r25
    29f2:	d0 09       	sbc	r29, r0
    29f4:	c0 f7       	brcc	.-16     	; 0x29e6 <__ftoa_engine+0x10a>
    29f6:	e1 0c       	add	r14, r1
    29f8:	f1 1e       	adc	r15, r17
    29fa:	43 1f       	adc	r20, r19
    29fc:	56 1f       	adc	r21, r22
    29fe:	c9 1f       	adc	r28, r25
    2a00:	d0 1d       	adc	r29, r0
    2a02:	7e f4       	brtc	.+30     	; 0x2a22 <__ftoa_engine+0x146>
    2a04:	70 33       	cpi	r23, 0x30	; 48
    2a06:	11 f4       	brne	.+4      	; 0x2a0c <__ftoa_engine+0x130>
    2a08:	8a 95       	dec	r24
    2a0a:	e6 cf       	rjmp	.-52     	; 0x29d8 <__ftoa_engine+0xfc>
    2a0c:	e8 94       	clt
    2a0e:	01 50       	subi	r16, 0x01	; 1
    2a10:	30 f0       	brcs	.+12     	; 0x2a1e <__ftoa_engine+0x142>
    2a12:	08 0f       	add	r16, r24
    2a14:	0a f4       	brpl	.+2      	; 0x2a18 <__ftoa_engine+0x13c>
    2a16:	00 27       	eor	r16, r16
    2a18:	02 17       	cp	r16, r18
    2a1a:	08 f4       	brcc	.+2      	; 0x2a1e <__ftoa_engine+0x142>
    2a1c:	20 2f       	mov	r18, r16
    2a1e:	23 95       	inc	r18
    2a20:	02 2f       	mov	r16, r18
    2a22:	7a 33       	cpi	r23, 0x3A	; 58
    2a24:	28 f0       	brcs	.+10     	; 0x2a30 <__ftoa_engine+0x154>
    2a26:	79 e3       	ldi	r23, 0x39	; 57
    2a28:	7d 93       	st	X+, r23
    2a2a:	2a 95       	dec	r18
    2a2c:	e9 f7       	brne	.-6      	; 0x2a28 <__ftoa_engine+0x14c>
    2a2e:	10 c0       	rjmp	.+32     	; 0x2a50 <__ftoa_engine+0x174>
    2a30:	7d 93       	st	X+, r23
    2a32:	2a 95       	dec	r18
    2a34:	89 f6       	brne	.-94     	; 0x29d8 <__ftoa_engine+0xfc>
    2a36:	06 94       	lsr	r0
    2a38:	97 95       	ror	r25
    2a3a:	67 95       	ror	r22
    2a3c:	37 95       	ror	r19
    2a3e:	17 95       	ror	r17
    2a40:	17 94       	ror	r1
    2a42:	e1 18       	sub	r14, r1
    2a44:	f1 0a       	sbc	r15, r17
    2a46:	43 0b       	sbc	r20, r19
    2a48:	56 0b       	sbc	r21, r22
    2a4a:	c9 0b       	sbc	r28, r25
    2a4c:	d0 09       	sbc	r29, r0
    2a4e:	98 f0       	brcs	.+38     	; 0x2a76 <__ftoa_engine+0x19a>
    2a50:	23 95       	inc	r18
    2a52:	7e 91       	ld	r23, -X
    2a54:	73 95       	inc	r23
    2a56:	7a 33       	cpi	r23, 0x3A	; 58
    2a58:	08 f0       	brcs	.+2      	; 0x2a5c <__ftoa_engine+0x180>
    2a5a:	70 e3       	ldi	r23, 0x30	; 48
    2a5c:	7c 93       	st	X, r23
    2a5e:	20 13       	cpse	r18, r16
    2a60:	b8 f7       	brcc	.-18     	; 0x2a50 <__ftoa_engine+0x174>
    2a62:	7e 91       	ld	r23, -X
    2a64:	70 61       	ori	r23, 0x10	; 16
    2a66:	7d 93       	st	X+, r23
    2a68:	30 f0       	brcs	.+12     	; 0x2a76 <__ftoa_engine+0x19a>
    2a6a:	83 95       	inc	r24
    2a6c:	71 e3       	ldi	r23, 0x31	; 49
    2a6e:	7d 93       	st	X+, r23
    2a70:	70 e3       	ldi	r23, 0x30	; 48
    2a72:	2a 95       	dec	r18
    2a74:	e1 f7       	brne	.-8      	; 0x2a6e <__ftoa_engine+0x192>
    2a76:	11 24       	eor	r1, r1
    2a78:	ef 90       	pop	r14
    2a7a:	ff 90       	pop	r15
    2a7c:	0f 91       	pop	r16
    2a7e:	1f 91       	pop	r17
    2a80:	cf 91       	pop	r28
    2a82:	df 91       	pop	r29
    2a84:	99 27       	eor	r25, r25
    2a86:	87 fd       	sbrc	r24, 7
    2a88:	90 95       	com	r25
    2a8a:	08 95       	ret

00002a8c <strrev>:
    2a8c:	dc 01       	movw	r26, r24
    2a8e:	fc 01       	movw	r30, r24
    2a90:	67 2f       	mov	r22, r23
    2a92:	71 91       	ld	r23, Z+
    2a94:	77 23       	and	r23, r23
    2a96:	e1 f7       	brne	.-8      	; 0x2a90 <strrev+0x4>
    2a98:	32 97       	sbiw	r30, 0x02	; 2
    2a9a:	04 c0       	rjmp	.+8      	; 0x2aa4 <strrev+0x18>
    2a9c:	7c 91       	ld	r23, X
    2a9e:	6d 93       	st	X+, r22
    2aa0:	70 83       	st	Z, r23
    2aa2:	62 91       	ld	r22, -Z
    2aa4:	ae 17       	cp	r26, r30
    2aa6:	bf 07       	cpc	r27, r31
    2aa8:	c8 f3       	brcs	.-14     	; 0x2a9c <strrev+0x10>
    2aaa:	08 95       	ret

00002aac <_exit>:
    2aac:	f8 94       	cli

00002aae <__stop_program>:
    2aae:	ff cf       	rjmp	.-2      	; 0x2aae <__stop_program>
